(dp0
VK12
p1
Vhttps://live-su.cdn.pooq.co.kr/hls/K12/1/500/live.m3u8?Policy=eyJTdGF0ZW1lbnQiOlt7IlJlc291cmNlIjoiaHR0cCo6Ly8qLmNkbi5wb29xLmNvLmtyL2hscy9LMTIvMS81MDAvKiIsIkNvbmRpdGlvbiI6eyJEYXRlTGVzc1RoYW4iOnsiQVdTOkVwb2NoVGltZSI6MTUzOTY1Njc4Mn0sIklwQWRkcmVzcyI6eyJBV1M6U291cmNlSXAiOiIxMjUuMTgzLjIwNC4wLzI0In19fV0sInRpZCI6IjczNTA3NDIwMzgyIn0_&Signature=bMWmqy0NS8xfn68rBZxShhqlo9IiHH9ICyAlqpThiKtb3CMnT2o~Nz-W8DUwHHzgYF6gh4tLFZd-BWJJRTdXnK6mKmCTClhXSE2-auMrwncYsRl8y4~irbX0y~G99xuMvaCffw1vP-QPgFSUG0co3ggnDyvGyXgZtogrLE0lbkmPPg9r0td7X1XwfgbZ22atvdLyUTZ0lNTWVGNdgX~F1JS8NJR9B8pBy1wHlMk7qQpspL6CwWWsRMFt6yHr4ypIEq8GT8LdmIRGADHCyUkIoR9ntrHaZ1OBS-2CZfm7xM4PxggxMI5DCBjTmnaLKhtaQG0ouZUDv6naCRd-fz7Gaw__&Key-Pair-Id=APKAJ6KCI2B6BKBQMD4A
p2
sVY01
p3
Vhttps://live-su.cdn.pooq.co.kr/hls/Y01/1/2000/live.m3u8?Policy=eyJTdGF0ZW1lbnQiOlt7IlJlc291cmNlIjoiaHR0cCo6Ly8qLmNkbi5wb29xLmNvLmtyL2hscy9ZMDEvMS8yMDAwLyoiLCJDb25kaXRpb24iOnsiRGF0ZUxlc3NUaGFuIjp7IkFXUzpFcG9jaFRpbWUiOjE1Mzg5MzUwNjF9LCJJcEFkZHJlc3MiOnsiQVdTOlNvdXJjZUlwIjoiMTI1LjE4My4yMDQuMC8yNCJ9fX1dLCJ0aWQiOiI3MzUwNzQyODY2MSJ9&Signature=Olwym4VbV6npRQDn-zSD32Sh~4g62eb~hpywrjdP5DVy-82p5OXVwhfV7V4QRklvN1hPdcQV-iAH6HR~QKcddF5Wsfg2PExy84pA-RpIOg0JVACbWfvgcIojAYOoXlsUZKIYgys6Q5kTM9oh5Kf2K56cLt7vAnzIU-yr9KRAiRL-V9Hl1ujX4k3d0G5VNBHgzSL81mr0l3QLfr1Qwk6rZ59mwNpPj79T7x~HypG2lyd~QtpKKSk1XWFFkB6NeI77cA7Hi3n~fKROOoT93eGtrp6jb47-ZJxS2JX5R6ZcR-QHRA7j~zYHQVNcrHyCABmBQZFY1lsEvSZ-Kca9Zdtk2w__&Key-Pair-Id=APKAJ6KCI2B6BKBQMD4A
p4
sVK17
p5
Vhttps://live-su.cdn.pooq.co.kr/hls/K17/1/500/live.m3u8?Policy=eyJTdGF0ZW1lbnQiOlt7IlJlc291cmNlIjoiaHR0cCo6Ly8qLmNkbi5wb29xLmNvLmtyL2hscy9LMTcvMS81MDAvKiIsIkNvbmRpdGlvbiI6eyJEYXRlTGVzc1RoYW4iOnsiQVdTOkVwb2NoVGltZSI6MTUzOTY1OTUwNH0sIklwQWRkcmVzcyI6eyJBV1M6U291cmNlSXAiOiIxMjUuMTgzLjIwNC4wLzI0In19fV0sInRpZCI6IjczNTA3NDIzMTA0In0_&Signature=KjbhyMc1ktcwDV80UT2KHnYaraCjnUzCQlsCQ4pt1Bthv5na3LX6khNYihkbnATtWNhyva7zboxRaDhDRTYEPMSPdx3teuYXu7V9u~HDejg-ZI02bp4y1lutw4YNsk~tqkayt7kQYS~z3yZSmCTLDa9SvOfimQx2LpJ0SN1liCjHRH-5YR4Thnry9HNX3TRr1Cuo56exi9Nlh8h4nHkBJ-5INs2slY0k7~qZpL~hITaxW-ceepHZNNnTge6YWT97etM58q4r14NK1HbvJgRZO223fYxtlnCh2aFg2QJp-CP~stp75mktlpuyAeg2aR2iHysc3FipE0xCoa1Xe0yRdA__&Key-Pair-Id=APKAJ6KCI2B6BKBQMD4A
p6
sVK15
p7
Vhttps://live-su.cdn.pooq.co.kr/hls/K15/1/2000/live.m3u8?Policy=eyJTdGF0ZW1lbnQiOlt7IlJlc291cmNlIjoiaHR0cCo6Ly8qLmNkbi5wb29xLmNvLmtyL2hscy9LMTUvMS8yMDAwLyoiLCJDb25kaXRpb24iOnsiRGF0ZUxlc3NUaGFuIjp7IkFXUzpFcG9jaFRpbWUiOjE1Mzg5Mzg4NTd9LCJJcEFkZHJlc3MiOnsiQVdTOlNvdXJjZUlwIjoiMTI1LjE4My4yMDQuMC8yNCJ9fX1dLCJ0aWQiOiI3MzUwNzQyMjQ1NyJ9&Signature=IfY0-lMfgsTB0yAYdwax-F70-DLgPzyV3DVs2eU7GluEw~odbf-F7Mxg652Kf9u7FcPoO-MV5RM8KKdMUGc1LKFS003PVO93oN22XH-FbnIZY3~NnGBbztC9XSAOLuh51J30P0gjo4F2oxseT0eCoAawkl4A4sS0pNp8JmjQMGY~bj-OuIMJQqReggvgae0KuSRIeSOTQGphUECtXGmNLVBhZofdcEWVCwbrPKMTGomux1qsW7DtFIeUytXffz4EwLuSVbRr8reueM-NxwGsbwTbkI9z4UZLygEZEeLygEDY97WboDUtU~VELxP7aM512Gnawk-Y04R-R-pPdPJuAw__&Key-Pair-Id=APKAJ6KCI2B6BKBQMD4A
p8
sVH02
p9
Vhttps://live-su.cdn.pooq.co.kr/hls/H02/1/5000/live.m3u8?Policy=eyJTdGF0ZW1lbnQiOlt7IlJlc291cmNlIjoiaHR0cCo6Ly8qLmNkbi5wb29xLmNvLmtyL2hscy9IMDIvMS81MDAwLyoiLCJDb25kaXRpb24iOnsiRGF0ZUxlc3NUaGFuIjp7IkFXUzpFcG9jaFRpbWUiOjE1MzkyMzAzMDR9LCJJcEFkZHJlc3MiOnsiQVdTOlNvdXJjZUlwIjoiMTI1LjE4My4yMDQuMC8yNCJ9fX1dLCJ0aWQiOiI3MzUwNzQyMzkwNCJ9&Signature=K1G0-OTm1gy99FqbD2EYC5~s7UBKIs1PXHpvHWXMLJgQU20HSvEuPMghvBMRGkRVx8KVLEQc2-pa3MP7lMgh80u7B254BGMDByxU~BoT45BhjR3PfJFpeJkIbXdYCuCNToobNr0DPw8N5rxdmkn~Q38mWXkUruE~-mw36qbBs-9wdixQe9yvOIt6wt8YiUyCqIC8fuMDoCXsI~zOsWBbA4RvkhLKkOaCULHeDIsllzUnrb1-CO8KxKP2-vC3Mn1NBBrTm9030G74bHS0leOKqRAELSSOQ3Ydy96ynjuEH18Od4gL48SZoDhoS5QHep73W8~dU7VYUdA02UUm6IpwOA__&Key-Pair-Id=APKAJ6KCI2B6BKBQMD4A
p10
sVH01
p11
Vhttps://live-su.cdn.pooq.co.kr/hls/H01/1/5000/live.m3u8?Policy=eyJTdGF0ZW1lbnQiOlt7IlJlc291cmNlIjoiaHR0cCo6Ly8qLmNkbi5wb29xLmNvLmtyL2hscy9IMDEvMS81MDAwLyoiLCJDb25kaXRpb24iOnsiRGF0ZUxlc3NUaGFuIjp7IkFXUzpFcG9jaFRpbWUiOjE1Mzk0NTQ5Njh9LCJJcEFkZHJlc3MiOnsiQVdTOlNvdXJjZUlwIjoiMTI1LjE4My4yMDQuMC8yNCJ9fX1dLCJ0aWQiOiI3MzUwNzQyODU2OCJ9&Signature=YwoD2EVjfNdfjdb9G9TNlAgcNmEdcKlshMFTnXWdm7oQ5ubhDAPv18FhRnQv8nnUVx2Iar8bARGZaj4douxgvxmnLHwdG~IV5mK3odeXqTAIK8CAEIgeDZZh-0jDFNb8N8MbN9X-G6d9XIEqjCJkcF6Lg4HSBFaWnXqrA0Z~lguU~FjJSDGFJPvnZc9bpYSIvUn~vb0K2H0AW6yzZb~rmOn9qGIfkXtn~NyfqdQEiAz-EBxOn2Df5DbLmG5zcpmiI9A~QUezFTRk6ieaYFs6NhtFhltmNc~eI4h3YdQ5r4Q7XpJtlpISq4L3I8DXJTivQZdM0sMvI9sgJf~iaX8tZg__&Key-Pair-Id=APKAJ6KCI2B6BKBQMD4A
p12
sVH07
p13
Vhttps://live-su.cdn.pooq.co.kr/hls/H07/1/5000/live.m3u8?Policy=eyJTdGF0ZW1lbnQiOlt7IlJlc291cmNlIjoiaHR0cCo6Ly8qLmNkbi5wb29xLmNvLmtyL2hscy9IMDcvMS81MDAwLyoiLCJDb25kaXRpb24iOnsiRGF0ZUxlc3NUaGFuIjp7IkFXUzpFcG9jaFRpbWUiOjE1Mzk0NTU2NDN9LCJJcEFkZHJlc3MiOnsiQVdTOlNvdXJjZUlwIjoiMTI1LjE4My4yMDQuMC8yNCJ9fX1dLCJ0aWQiOiI3MzUwNzQyOTI0MyJ9&Signature=Mkd~-UmU~ZqgKfaq-s~0stKediSyOMhVnEwM7kkdzPRghxmKYwMav~7VMjjTPaA4LqP-WaCYYchmMy3WmvTefruRaOUhG1AEIi9XckjK7tMytrioUrUr-jwUcW82138~xc9T6s7J86snp7VWDb7YKZLYEL5X129TzTwIOREA~HRG6-rx0JF~2WQM3R~0AWPQ7aEcuBD34StCUA9w4~2d5E9IGYs-BvQkQsYmArzgolqULtuIdnFd3-Byo-IPUE8izMhIo8g2gd2DiGk3yPCx8MYqHs2EtmeuJ8ByYkc0bnKaYmdZwnLBHY9KtXHl8roF6hKqTjAsMrvmGDUWM4LplA__&Key-Pair-Id=APKAJ6KCI2B6BKBQMD4A
p14
sVC2703
p15
Vhttps://live-su.cdn.pooq.co.kr/hls/C2703/1/100/radio.m3u8?Policy=eyJTdGF0ZW1lbnQiOlt7IlJlc291cmNlIjoiaHR0cCo6Ly8qLmNkbi5wb29xLmNvLmtyL2hscy9DMjcwMy8xLzEwMC8qIiwiQ29uZGl0aW9uIjp7IkRhdGVMZXNzVGhhbiI6eyJBV1M6RXBvY2hUaW1lIjoxNTM5NjU5MjgwfSwiSXBBZGRyZXNzIjp7IkFXUzpTb3VyY2VJcCI6IjAuMC4wLjAvMCJ9fX1dLCJ0aWQiOiI3MzUwNzQyMjg4MCJ9&Signature=BL2Kr8CFCBNYfbSbV36RX6Bw4h-9dPcotJymWMnjoVlF~Ymu~Mmcd6fDzJZmICzZHSliTTOSCT3yHSlk97uddvwGSlW9QQyNbBzcM73A51aO0Xp8i8k9iPseqUJ7qk5yrUHLrvgX~7PCaLOSvJhn0cRDkO83JDNpHVyqBK5O0Xl0iViCm1r~qBm18GEwfZmRMFvvZMf-N26ReWHRmWqXY6sFvPOvSpywMVq0Omkq4KxVqg7NUbm16u3r8-j0A0WXj4zPnWDED-vD9cM-6TTFAzB0pS~STlJMTqKXEWQ4RgEKuQrYr1HRgoitoAvcPHuohVY8K0tCmmrKWjgoqW1pMg__&Key-Pair-Id=APKAJ6KCI2B6BKBQMD4A
p16
sVC4102
p17
Vhttps://live-su.cdn.pooq.co.kr/hls/C4102/1/2000/live.m3u8?Policy=eyJTdGF0ZW1lbnQiOlt7IlJlc291cmNlIjoiaHR0cCo6Ly8qLmNkbi5wb29xLmNvLmtyL2hscy9DNDEwMi8xLzIwMDAvKiIsIkNvbmRpdGlvbiI6eyJEYXRlTGVzc1RoYW4iOnsiQVdTOkVwb2NoVGltZSI6MTUzODkzMjczNn0sIklwQWRkcmVzcyI6eyJBV1M6U291cmNlSXAiOiIxMjUuMTgzLjIwNC4wLzI0In19fV0sInRpZCI6IjczNTA3NDI2MzM2In0_&Signature=a3emMwMOOjOZ38hrzyXrH3dFOKJBZWga0LS~VLTFhtPor3tKfVojnJZ~lNcATZbBsURmwqZmwf7-XvJra7JYoISS8Mg2loKqs0YAHOyT23JcOw0HKYRFwh~9AYa4wuJFrehTAvjYWSWxFAR5njJ1t0c573-3pgMpZsDIBInLp872cWD93QxltcPJfIDvuPxUYCD-u0tAlcDZeXfPdUJIVw8mq-XLl9CKJwzzm4~xGVj~~fsnmBuTSvPU9~ul10boutkKHGKFwE7tTd3bb3Mn2~VqwD6UjxQUHvpACPn43LGnq65~f0M9YckcRz-rnIR7EdevcD1Y5WWgQRnmJsECiQ__&Key-Pair-Id=APKAJ6KCI2B6BKBQMD4A
p18
sVC4101
p19
Vhttps://live-su.cdn.pooq.co.kr/hls/C4101/1/2000/live.m3u8?Policy=eyJTdGF0ZW1lbnQiOlt7IlJlc291cmNlIjoiaHR0cCo6Ly8qLmNkbi5wb29xLmNvLmtyL2hscy9DNDEwMS8xLzIwMDAvKiIsIkNvbmRpdGlvbiI6eyJEYXRlTGVzc1RoYW4iOnsiQVdTOkVwb2NoVGltZSI6MTUzODkzODc4M30sIklwQWRkcmVzcyI6eyJBV1M6U291cmNlSXAiOiIxMjUuMTgzLjIwNC4wLzI0In19fV0sInRpZCI6IjczNTA3NDIyMzgzIn0_&Signature=AUzjOFrwFAxR-cqbUeA85v4b9uz1aAdq-CtZyJLIRwxt5Ilo236gr6p6fpHGVKsaJaS5PVTKozDE07hzLgdYkkZICg35lYYArpy~joNdjdsfqntmLJZiCVxnh52xnJAvci2jHppmkxSsDdxpxbqb8vhvhcO4xwY0tebanCFA3YOlJ6AHMFdvIo8BG3S8zZNVUsZ30f0VoWO3CFUrvb9QynvEqlvostbPVNeJcnEs2RZ0IlMaDGFZ40QU1K89ViMk4hXu5qJNS1ADtAnCZKUFucqD1XYHSOMcHOODYKgkcP2XIRsl4ZcYzqEKTPk81JdM3jd5tvl6t1-B3DN4nPxLtA__&Key-Pair-Id=APKAJ6KCI2B6BKBQMD4A
p20
sVC2706
p21
Vhttps://live-su.cdn.pooq.co.kr/hls/C2706/1/100/radio.m3u8?Policy=eyJTdGF0ZW1lbnQiOlt7IlJlc291cmNlIjoiaHR0cCo6Ly8qLmNkbi5wb29xLmNvLmtyL2hscy9DMjcwNi8xLzEwMC8qIiwiQ29uZGl0aW9uIjp7IkRhdGVMZXNzVGhhbiI6eyJBV1M6RXBvY2hUaW1lIjoxNTM5MjY1NjA3fSwiSXBBZGRyZXNzIjp7IkFXUzpTb3VyY2VJcCI6IjAuMC4wLjAvMCJ9fX1dLCJ0aWQiOiI3MzUwNzQyOTIwNyJ9&Signature=Gbhn5yiRWDwG6w8t2-QXMS4q4OSUd10ZSJ9rTUSJWnGLLRepknntng6g1OelAb3aKEurCWd4DXHnsiwY2~z2veOsXnS~Sb4jymiFUaLnymnZvaYupMx0UGKPbIdzK9tU18-DNZMmqUJDsGpDcQdsGKW4dlRuhEf2sUinXrgKzv42N7wENWJs6lWoNtE2bgeTYHAxqyI703gXn3K5gZB~OmcJfc7789r54L9XzWdLOglyT4rg7tawq86rOEs6TFW-S~7tJJWj9qmjfFwHJ961m9kHveNe-qz8~3kqpMxxqq66fCLFFgj3XNh2qRpa4~icNZ1wo0peQDUSCFgJ7zMvog__&Key-Pair-Id=APKAJ6KCI2B6BKBQMD4A
p22
sVC2705
p23
Vhttps://live-su.cdn.pooq.co.kr/hls/C2705/1/100/radio.m3u8?Policy=eyJTdGF0ZW1lbnQiOlt7IlJlc291cmNlIjoiaHR0cCo6Ly8qLmNkbi5wb29xLmNvLmtyL2hscy9DMjcwNS8xLzEwMC8qIiwiQ29uZGl0aW9uIjp7IkRhdGVMZXNzVGhhbiI6eyJBV1M6RXBvY2hUaW1lIjoxNTM5NjU5MTg2fSwiSXBBZGRyZXNzIjp7IkFXUzpTb3VyY2VJcCI6IjAuMC4wLjAvMCJ9fX1dLCJ0aWQiOiI3MzUwNzQyMjc4NiJ9&Signature=Q6Q4UNTJpOOy6~ASb1WiOUroNwSKxj-91U-iDOEIFylYiCJTgmKMZyN4d9QfKCDCrrNyLD9gvSMz29ODMfMxEJU5Okl2GdBXvlc7GFv~U6OLDlKO4zqP2~R8i2iVjaA3ku~SMV-HLEqsZMZDlLkGkmvUxwCGdUWLigL3XtDeDUVSSRxqDnS4pghnM2hln-tJEfz~sNMteBcB-ZcxqfGpd7Ds6y7mOBdweufsRocxksflHmCM7E5O3L7R256QwEFQvQFNGav2iur~EeHPGrL~rhKXiE3qkexaC~mNfs2sNODloaLhU-~HabntloZ2XIn5ey-AOjNRABFgzIhSHNrG-w__&Key-Pair-Id=APKAJ6KCI2B6BKBQMD4A
p24
sVC2601
p25
Vhttps://live-su.cdn.pooq.co.kr/hls/C2601/1/5000/live.m3u8?Policy=eyJTdGF0ZW1lbnQiOlt7IlJlc291cmNlIjoiaHR0cCo6Ly8qLmNkbi5wb29xLmNvLmtyL2hscy9DMjYwMS8xLzUwMDAvKiIsIkNvbmRpdGlvbiI6eyJEYXRlTGVzc1RoYW4iOnsiQVdTOkVwb2NoVGltZSI6MTUzOTI2OTAyNX0sIklwQWRkcmVzcyI6eyJBV1M6U291cmNlSXAiOiIxMjUuMTgzLjIwNC4wLzI0In19fV0sInRpZCI6IjczNTA3NDIyNjI1In0_&Signature=GzqW0H8HNlhFz3XLuC2LGDzPTSp4RGhTyJn2gsNn7Fl~LrZkOKMb58zJI0hd6AyJOf1693EXRq~91Nj13saSFcA8kugyWOpfUEu~DZPTbiodlF9GDi2uI4D3g5ZP431amKYqKT~eX-wHMWVLHJVo4nTCKLK~kfyd~iiSOVn49spH5NXEawwX6u6~yjsF5-rR9ITLAYLWFIbEyzvA3vgpq7dBvU8PoFt22AB-pYRjHODk5D1ie0TQOh9sFKrbqQO8ISfTBE3Mm289JJb6GWgxKYxFlMvHK-SRtnpIjM0Qhk2wSYQPYE9i6OHL8dNVkm9hgVB1WPxRB21pPlhLEVNNqg__&Key-Pair-Id=APKAJ6KCI2B6BKBQMD4A
p26
sVPM1
p27
Vhttps://live-su.cdn.pooq.co.kr/hls/PM1/1/2000/live.m3u8?Policy=eyJTdGF0ZW1lbnQiOlt7IlJlc291cmNlIjoiaHR0cCo6Ly8qLmNkbi5wb29xLmNvLmtyL2hscy9QTTEvMS8yMDAwLyoiLCJDb25kaXRpb24iOnsiRGF0ZUxlc3NUaGFuIjp7IkFXUzpFcG9jaFRpbWUiOjE1Mzg5Mzg5OTd9LCJJcEFkZHJlc3MiOnsiQVdTOlNvdXJjZUlwIjoiMTI1LjE4My4yMDQuMC8yNCJ9fX1dLCJ0aWQiOiI3MzUwNzQyMjU5NyJ9&Signature=ZctM3cCBvdJGU~IXkfvqQYbb1TxTfRwjb9BAY32xBgCbTPxp3EAFGAXh8p8CLREQ4TsUbyjmFebdRFvIxA7d4LANYZ0~K2dXyC2S4FD~99lFUseNcH~v3WutxdU7MUGcq6fiQa0-7OrgqsEMOP8dPeBCKI15WcrJ50iX9yUAsHYUcsfRemmTzFLZ3PIWeba901SiMc6x5N3J0uRpnVTvu7tRKu7nVR0h3kWUxIpDbTZNcKmrf8zZGs~v4Lmoeus4AqCHcag0Rnb-yxr7D7jh8h2wQS7-1ye-z4Z2NLwzEvSfvVAZeFyHsWOrbA~MbpxCy7wylM7buVRQZsWBEPtwkg__&Key-Pair-Id=APKAJ6KCI2B6BKBQMD4A
p28
sVC5401
p29
Vhttps://live-su.cdn.pooq.co.kr/hls/C5401/1/2000/live.m3u8?Policy=eyJTdGF0ZW1lbnQiOlt7IlJlc291cmNlIjoiaHR0cCo6Ly8qLmNkbi5wb29xLmNvLmtyL2hscy9DNTQwMS8xLzIwMDAvKiIsIkNvbmRpdGlvbiI6eyJEYXRlTGVzc1RoYW4iOnsiQVdTOkVwb2NoVGltZSI6MTUzOTE5MTE3NH0sIklwQWRkcmVzcyI6eyJBV1M6U291cmNlSXAiOiIxMjUuMTgzLjIwNC4wLzI0In19fV0sInRpZCI6IjczNTA3NDI0Nzc0In0_&Signature=cZxLbXAH4EhGbYJXPlrH7tfRRd5Vp8eJTNyr7MhZB6OCWyyF9qLxvrrKi3nxmOMbdVzY1ByTXxptfnA3xQvKnu1wwHB9pE9SXZDZxY2nYlfIHHeAkCulhp9ewzygGtVz1NL5Y2zN0QEtUSoc7qaLfAWG2~ybx0B-86E0Cvi7opdnBtIh4Npp5aNGUetYsOP1HXYJX8aa6c07~x4xYXP~hGQq7Gf1oJhKLkEaAK8I3QSYxKszII5hCEVM3CUAjNcp0wC7R6rW4SXUULchZCXQu0FuDYVrwc2kTRLwZAG7PUX6B3anI1fUqG6G3TP2w8EoPA8flflivSZwJKdJNnqGIg__&Key-Pair-Id=APKAJ6KCI2B6BKBQMD4A
p30
sVM10
p31
Vhttps://live-su.cdn.pooq.co.kr/hls/M10/1/500/live.m3u8?Policy=eyJTdGF0ZW1lbnQiOlt7IlJlc291cmNlIjoiaHR0cCo6Ly8qLmNkbi5wb29xLmNvLmtyL2hscy9NMTAvMS81MDAvKiIsIkNvbmRpdGlvbiI6eyJEYXRlTGVzc1RoYW4iOnsiQVdTOkVwb2NoVGltZSI6MTUzOTY1OTQxMn0sIklwQWRkcmVzcyI6eyJBV1M6U291cmNlSXAiOiIxMjUuMTgzLjIwNC4wLzI0In19fV0sInRpZCI6IjczNTA3NDIzMDEyIn0_&Signature=Tv4a0I682BkI7e5XxOeoLa3X7LJNt-jb5ZIrEZ33BFJVXwwJ17P9X3NOXD7ABm65Lvre8Yq4pDu3H~HVT6l-nlqmE~IME9tHYe5tkBv4x5dtegJ9Uj01kEF61J86PvOLH6IF~itFzzT-aJjC30uvaSbK7NT-v6q8UrTjjNe-YyUi-RL0WMKemp4FTKpMDem7rAKdAbcYpNb4-26eI53bG5QTe6OzU7LIRjBSUFv~s4kNfqkuXlDESBUqw2TWf1wUJhYmFbXFQc--08hDR9sgajg55fhzBGZP2Fw99nQqbNjqSQcelCCzxkOAkI2xAVzanz65mUnMGWavVPasyODsxw__&Key-Pair-Id=APKAJ6KCI2B6BKBQMD4A
p32
sVS13
p33
Vhttps://live-su.cdn.pooq.co.kr/hls/S13/1/500/live.m3u8?Policy=eyJTdGF0ZW1lbnQiOlt7IlJlc291cmNlIjoiaHR0cCo6Ly8qLmNkbi5wb29xLmNvLmtyL2hscy9TMTMvMS81MDAvKiIsIkNvbmRpdGlvbiI6eyJEYXRlTGVzc1RoYW4iOnsiQVdTOkVwb2NoVGltZSI6MTUzOTY1OTk3N30sIklwQWRkcmVzcyI6eyJBV1M6U291cmNlSXAiOiIxMjUuMTgzLjIwNC4wLzI0In19fV0sInRpZCI6IjczNTA3NDIzNTc3In0_&Signature=RTfBHpSlNNJW0zoIYn5e-Twl7Ro3Ws2~NqfNRHLxX0MY89h-UG1SpD2sjnabqpOlxVWE432eR14bvNObrfx6oCJ1RxWUBcMITdWKQYLZnf86lx802UjrzNMG9yqK1cYj8ucKy10M4yF~KLvG53otzIajCcLfiLNmPS5NXCt2ygPoJmCDrx1KB1bOjg8KeK~Wat8TjAErvMn5XL8H4MNvRoBQqNxKQjIhZy1UGT1ileZb1R2ZoCoNeq5hIXBfyEt5pMCjSWOd66LoHYMlVr~2BuTasBmHWZACpBKCAyvEx10lFD~eH2EMLacBmmOBjySgRn8yo6xcmHHPo6zR70kt-Q__&Key-Pair-Id=APKAJ6KCI2B6BKBQMD4A
p34
sVS10
p35
Vhttps://live-su.cdn.pooq.co.kr/hls/S10/1/500/live.m3u8?Policy=eyJTdGF0ZW1lbnQiOlt7IlJlc291cmNlIjoiaHR0cCo6Ly8qLmNkbi5wb29xLmNvLmtyL2hscy9TMTAvMS81MDAvKiIsIkNvbmRpdGlvbiI6eyJEYXRlTGVzc1RoYW4iOnsiQVdTOkVwb2NoVGltZSI6MTUzOTY1NjczMn0sIklwQWRkcmVzcyI6eyJBV1M6U291cmNlSXAiOiIxMjUuMTgzLjIwNC4wLzI0In19fV0sInRpZCI6IjczNTA3NDIwMzMyIn0_&Signature=fTZT4utXz4NHJb2JwdhvEsNRb7~mImKyeBHpiLqSxyJMeCPti50US~o7QZ7sz0t~kiXvo-Hx-f9IgRtusnVTGAKAUDs10TO8J38GcMW1TILzzWQYSxRO88gUQwCQTmwI1NGzPqzK6f3LulbF~RNgb51h54YLJpI-jnhlOY~YTDIB1ZFlNNk1JVTyQFuGlO5BfxL1qOzCHJBOy3~Mu2XGdIqey3gYQtB56rtX7l1Lp3p0dYdnSR5JdPYoxTxGjTTbD7eT7uac9ANYBBe-tplC2Yyd-~XNUp-zj~slctjmPAbg-QAidd93fPhl5Ph0N3wnitTaj80q1qZj4Df5mQkQNA__&Key-Pair-Id=APKAJ6KCI2B6BKBQMD4A
p36
sVC5501
p37
Vhttps://live-su.cdn.pooq.co.kr/hls/C5501/1/5000/live.m3u8?Policy=eyJTdGF0ZW1lbnQiOlt7IlJlc291cmNlIjoiaHR0cCo6Ly8qLmNkbi5wb29xLmNvLmtyL2hscy9DNTUwMS8xLzUwMDAvKiIsIkNvbmRpdGlvbiI6eyJEYXRlTGVzc1RoYW4iOnsiQVdTOkVwb2NoVGltZSI6MTUzOTY2NDg3MX0sIklwQWRkcmVzcyI6eyJBV1M6U291cmNlSXAiOiIxMjUuMTgzLjIwNC4wLzI0In19fV0sInRpZCI6IjczNTA3NDI4NDcxIn0_&Signature=P6d~cLpKiKR9SPMdEUYnXCiXfa8Rx-N5gzHmX6ndvILQq8No4mruNwe-c4oHLPbH4ofal4umA1PLnrYQ4q~OeNPTte8xfIv4LPL7B376pNXhj2d6eOgqovxoQZP9AOECgPRuYXTuCLlFychFW1v7CJwMFAWF-uvgsJ8Td509C2ldpVe1IbkYWbrHMRe5XuE22VjSTQrE-2VB0RxgbShAyxpulW3evli1frLXSVqaHFiuPYa8v0mUYa1Yyu8PvljRgT42WXiRb1U6xdeHCdxISxN7uPmQlHk55rozJ2J1tGBlEbGDnxuYpoefwfcQAEd9uhEdQz0axz1~I5TO4DQ3zg__&Key-Pair-Id=APKAJ6KCI2B6BKBQMD4A
p38
sVM06
p39
Vhttps://live-su.cdn.pooq.co.kr/hls/M06/1/500/live.m3u8?Policy=eyJTdGF0ZW1lbnQiOlt7IlJlc291cmNlIjoiaHR0cCo6Ly8qLmNkbi5wb29xLmNvLmtyL2hscy9NMDYvMS81MDAvKiIsIkNvbmRpdGlvbiI6eyJEYXRlTGVzc1RoYW4iOnsiQVdTOkVwb2NoVGltZSI6MTUzOTY1OTg2MH0sIklwQWRkcmVzcyI6eyJBV1M6U291cmNlSXAiOiIxMjUuMTgzLjIwNC4wLzI0In19fV0sInRpZCI6IjczNTA3NDIzNDYwIn0_&Signature=NT~MOsVBnR1OtebF6aPu6w88Z-N~q4PqQhL7KWDqDDTV1AOkG~8XFfY5z2R1nGvAIWu1Gq~MlOYbWhnnZouwfInBlOHr932xdHXM7kC0Zth0Rkr5sqvdSdAFYluGltPOS7mZOn3w1MurdoRL5CWcB2MwI4N~caOwx-NqzlhaYld3Qol-zK7D~-ttYsohex1uEit-ykz7IXEadAsxUHwtuPdE6-uEa2ymBIl0fQiIvLuqyQnJJoYJUteFzMI8UCcj-QEgvBdCTn101IKunGUHhS9718YSCzpSLhYjNL7QO~-ZW9jJN2iBwJnmJloD68kBr~JgvMyeYjapDV~~wwj7Ng__&Key-Pair-Id=APKAJ6KCI2B6BKBQMD4A
p40
sVM07
p41
Vhttps://live-su.cdn.pooq.co.kr/hls/M07/1/100/radio.m3u8?Policy=eyJTdGF0ZW1lbnQiOlt7IlJlc291cmNlIjoiaHR0cCo6Ly8qLmNkbi5wb29xLmNvLmtyL2hscy9NMDcvMS8xMDAvKiIsIkNvbmRpdGlvbiI6eyJEYXRlTGVzc1RoYW4iOnsiQVdTOkVwb2NoVGltZSI6MTUzOTY1OTM4NX0sIklwQWRkcmVzcyI6eyJBV1M6U291cmNlSXAiOiIwLjAuMC4wLzAifX19XSwidGlkIjoiNzM1MDc0MjI5ODUifQ__&Signature=l4FJvJh59VSJVk~7GQSaUuLA~htHpTp2o~YIXfWTwJIfyZTSQNEQ1I3FxXpdYMfagz9nfuXSJhTs2iS--xj8ZhoXjmzK1FjN2aslWK~geYTySpNyrPwouuwgn6tSuHsJ6cjXEjY-4FB~Uq9U~lQ~C2HXV6bipsRt1Nr8JMQBKEO0hlZt59FoI~I323vs35DOAWiWPrMlgK0LLzbGLCpm5of7xWxBakv4I5f0xzYIGL9G8k0813AiVl9OWnzpyyjWiz-SW631ZPq52b9eiO8QmOVblrrj6b4UnIkgR3WriBgVtdXaI9yWBgL5DrvodngEni8pH7KH28qCEB1QzsoqPw__&Key-Pair-Id=APKAJ6KCI2B6BKBQMD4A
p42
sVM02
p43
Vhttps://live-su.cdn.pooq.co.kr/hls/M02/1/500/live.m3u8?Policy=eyJTdGF0ZW1lbnQiOlt7IlJlc291cmNlIjoiaHR0cCo6Ly8qLmNkbi5wb29xLmNvLmtyL2hscy9NMDIvMS81MDAvKiIsIkNvbmRpdGlvbiI6eyJEYXRlTGVzc1RoYW4iOnsiQVdTOkVwb2NoVGltZSI6MTUzOTY1OTc5MX0sIklwQWRkcmVzcyI6eyJBV1M6U291cmNlSXAiOiIxMjUuMTgzLjIwNC4wLzI0In19fV0sInRpZCI6IjczNTA3NDIzMzkxIn0_&Signature=DEZZKNzow5fSYzD-otm21me3AeNoyOS7m5I8E0XQOVtJvOUWvacd2jAzwhM-45UafPwcIVqiIg0llOvwZAKQJ9PjWQjiH7DgWgeq2QwMZ9rp2gyMvckxtGbTTBFn7PsPQ8~R8LsGavpLVqRYyJk-cj4YdNWHzHBySdWYwbL9wievhn~C8woU9kCKvetSSkU8UbCBM40S26BFbXTpazP~MWwWhTEnS93v57sMie3sjKZcTmxjUbzDlzRsEDZX5ShrIeXMlayzrJ73YCceXbPbH6gKXm2olxMURfM6s9NLb4b1HhuXm3IW5-O7WOHKHcRzcgQsJF0kA~OpqnNQiOJLlw__&Key-Pair-Id=APKAJ6KCI2B6BKBQMD4A
p44
sVM03
p45
Vhttps://live-su.cdn.pooq.co.kr/hls/M03/1/500/live.m3u8?Policy=eyJTdGF0ZW1lbnQiOlt7IlJlc291cmNlIjoiaHR0cCo6Ly8qLmNkbi5wb29xLmNvLmtyL2hscy9NMDMvMS81MDAvKiIsIkNvbmRpdGlvbiI6eyJEYXRlTGVzc1RoYW4iOnsiQVdTOkVwb2NoVGltZSI6MTUzOTY2MDA0N30sIklwQWRkcmVzcyI6eyJBV1M6U291cmNlSXAiOiIxMjUuMTgzLjIwNC4wLzI0In19fV0sInRpZCI6IjczNTA3NDIzNjQ3In0_&Signature=Zcx38mb5X9YEQ3e5W0iQmJzhjvKR8K16sMokY~~RyanFgpB83rge8XfHSnI~duHZg9dv1M3FZ8xPAMF1Yw2RXJX2XSYbXEUKuW1dXKBZLRREKXuYwkeaISPCS9WLlOlgO28H2Sm6y2~GXhhOOHi~Ytzzfefr5jw2yz7hU7pYqox7OYRnmE8pZUhRYNTK8qqm~Ct8ihXfq0X5egKzAhWTaolX~E3wKmzs1t~yXoAdTHLO9RJnCseppyN~vvP8SRoZxFfij7HZod8ed71ja78rK0aLJd6RG2NmP4zoMb8NANhSmOqWZZANrRn8sViD6K2qU5d8o~gSHrR~MK3n1vbaww__&Key-Pair-Id=APKAJ6KCI2B6BKBQMD4A
p46
sVM01
p47
Vhttps://live-su.cdn.pooq.co.kr/hls/M01/1/500/live.m3u8?Policy=eyJTdGF0ZW1lbnQiOlt7IlJlc291cmNlIjoiaHR0cCo6Ly8qLmNkbi5wb29xLmNvLmtyL2hscy9NMDEvMS81MDAvKiIsIkNvbmRpdGlvbiI6eyJEYXRlTGVzc1RoYW4iOnsiQVdTOkVwb2NoVGltZSI6MTUzOTY1OTgyOH0sIklwQWRkcmVzcyI6eyJBV1M6U291cmNlSXAiOiIxMjUuMTgzLjIwNC4wLzI0In19fV0sInRpZCI6IjczNTA3NDIzNDI4In0_&Signature=RmgLxx0I7dIc3eCuUP9x9qetMtCGptvImV9eCkJUrfC1NuN3cMW7GEWLcdMqltrJd7ncKzedWEOGRFXGmCbFxJp96A9zVC3chTi30cQ-Wry0yleUf5pTf6Q9g5gqbIW4Ng7NEB7STR-t0w38postMxx78bXOJdAWTmM2Bw7nqkFrQq2p8bcrpakwTxxP5qDhRRSLiw8KZ7Bvn5qP70rG0SpNkqDxJnX16ThBsFK4Lu4VM~1x7y8IeEb05mYXMIba4R6Yk~RH2JCkqrH2~fPc3q7Lj9PWr0muUPIwsFcWCaGmmIsnS4tWfbNed7gqUgpzl-QzFKfJEQK8cbxzCpixIw__&Key-Pair-Id=APKAJ6KCI2B6BKBQMD4A
p48
sVC4901
p49
Vhttps://live-su.cdn.pooq.co.kr/hls/C4901/1/2000/live.m3u8?Policy=eyJTdGF0ZW1lbnQiOlt7IlJlc291cmNlIjoiaHR0cCo6Ly8qLmNkbi5wb29xLmNvLmtyL2hscy9DNDkwMS8xLzIwMDAvKiIsIkNvbmRpdGlvbiI6eyJEYXRlTGVzc1RoYW4iOnsiQVdTOkVwb2NoVGltZSI6MTUzODkzODgzNX0sIklwQWRkcmVzcyI6eyJBV1M6U291cmNlSXAiOiIxMjUuMTgzLjIwNC4wLzI0In19fV0sInRpZCI6IjczNTA3NDIyNDM1In0_&Signature=C0I0YKwqDurDvfT8fv~YiCnJNnWuKNg7uvtvm-5zHTFBR8R97wwtT-QRFgw~XX-~HTmR-6Wr6HUIrK29RgLDEBy-JD7NTUI7SQPkj2ToO6k5dLV3c-~6IziZW18KrvVO8eHH4cU2CVBmY-BZB3n78oaVVfU9axVf~43Vk3IdXtH1-UgAFWAKM5Vx4hsKLdu0Vb~FZ47-NTWWnrG9Pbpo6DBBVPVGxBUbPIchi5YBN79WTBmWHn2h7xe8oT7CqLFJGZRntH9Lr1syoAhK1H~BYY-H9xYDlSxkQUO~y64x24thZEspDUoIpABUNVMVEF-k75r3Sznl0yUEw58RYN5YrQ__&Key-Pair-Id=APKAJ6KCI2B6BKBQMD4A
p50
sVC4401
p51
Vhttps://live-su.cdn.pooq.co.kr/hls/C4401/1/5000/live.m3u8?Policy=eyJTdGF0ZW1lbnQiOlt7IlJlc291cmNlIjoiaHR0cCo6Ly8qLmNkbi5wb29xLmNvLmtyL2hscy9DNDQwMS8xLzUwMDAvKiIsIkNvbmRpdGlvbiI6eyJEYXRlTGVzc1RoYW4iOnsiQVdTOkVwb2NoVGltZSI6MTUzOTIyNjYxMH0sIklwQWRkcmVzcyI6eyJBV1M6U291cmNlSXAiOiIxMjUuMTgzLjIwNC4wLzI0In19fV0sInRpZCI6IjczNTA3NDIwMjEwIn0_&Signature=TXeF6dG58l2Ytuq02D3yI0DV2lryxJnGjFTDAggefkGo4XynbkrxUb2qI36m2Bckc3py6m0Zd-1U3Fc9RVGK2Ks9FVViWW-rHCX8Qu9wlQeQ-eoYdErcvUPFhAbyJO7Yj8M-pqKUyaEuI0lVs6g2uhAyhKRQrzaDbm6DN2zu5wqhwLomSjDKuDvA9QWI2nzjcLBiF3Hx2VuNSwQVkJK9myCeF~PigPRLtHZZMyXzzyzYeTD3Pr-cCgXuxu1O-KDTodqdaw8lNBY-q3LRpprJYn826ATTDD7k6kacTXxw6j3thAIQRU85ZU-p1G~u86X3n2c85Q8Pgs4RDIBz7qZZlQ__&Key-Pair-Id=APKAJ6KCI2B6BKBQMD4A
p52
sVM08
p53
Vhttps://live-su.cdn.pooq.co.kr/hls/M08/1/100/radio.m3u8?Policy=eyJTdGF0ZW1lbnQiOlt7IlJlc291cmNlIjoiaHR0cCo6Ly8qLmNkbi5wb29xLmNvLmtyL2hscy9NMDgvMS8xMDAvKiIsIkNvbmRpdGlvbiI6eyJEYXRlTGVzc1RoYW4iOnsiQVdTOkVwb2NoVGltZSI6MTUzODkzNzQyM30sIklwQWRkcmVzcyI6eyJBV1M6U291cmNlSXAiOiIwLjAuMC4wLzAifX19XSwidGlkIjoiNzM1MDc0MjEwMjMifQ__&Signature=jAEFROn0Rv5Km3jSxMgWe5kOv~41A2MlclSuZb5XwXtCmY9LOkJ4ZlWA9oE1Z1oUgcsvaA3HIkbS1DiQYgO4BXrr-ExcfTFKl-1RLfuwKE9SmswJOY4l3HIHhYHlSeBC6JL0kMCmfETkJIjd47zjBlakNVdPqNRObK54YMe39pMci6LXRrppOIuepNaBDm1M9IuoUrV5OvWsQpGvdgyRq7KryVT6FC0glnTaTJiBbx-5pMlvmzLiVSVzYdtWh3oZInEBoUFzHdJz2M00wi-IDgkusETsPQiew2h6kiqcjIU~6h9HNEV7uGOwByOAh5heedKj1Ytny8jOeMONGa2K3Q__&Key-Pair-Id=APKAJ6KCI2B6BKBQMD4A
p54
sVK01
p55
Vhttps://live-su.cdn.pooq.co.kr/hls/K01/1/5000/live.m3u8?Policy=eyJTdGF0ZW1lbnQiOlt7IlJlc291cmNlIjoiaHR0cCo6Ly8qLmNkbi5wb29xLmNvLmtyL2hscy9LMDEvMS81MDAwLyoiLCJDb25kaXRpb24iOnsiRGF0ZUxlc3NUaGFuIjp7IkFXUzpFcG9jaFRpbWUiOjE1Mzk2NjIxMTB9LCJJcEFkZHJlc3MiOnsiQVdTOlNvdXJjZUlwIjoiMTI1LjE4My4yMDQuMC8yNCJ9fX1dLCJ0aWQiOiI3MzUwNzQyNTcxMCJ9&Signature=HvvnVfhBNHbkGABMzCojYR2-ws370ii1It6~JzrMygrR~JsOaq0CLhgzTt06VRSPWrMy91bWCWobzgY8O0prBX4pl-~LHDX6W4TF5YBdiOfzuedQcA9iW00hFWuUjeGPA6buoWsWj3wATmCXbo9p1thgYv~NtTT8x8xniX0aaLSM0KNakvsswvic2pTbFebKQleqSQ12VVwgyy7ukTfA22~prhfXsuLGwNfuqFcE0INMgFQxsXtea69V4L-zXYenDgvVel6IpacBfVp-XD3jtQey86daga2WohVVAgurLfqc4nnpGYNZG~YRpKWI2bvcabjLQ2yaeh0CuaIQ8PfR3Q__&Key-Pair-Id=APKAJ6KCI2B6BKBQMD4A
p56
sVK02
p57
Vhttps://live-su.cdn.pooq.co.kr/hls/K02/1/5000/live.m3u8?Policy=eyJTdGF0ZW1lbnQiOlt7IlJlc291cmNlIjoiaHR0cCo6Ly8qLmNkbi5wb29xLmNvLmtyL2hscy9LMDIvMS81MDAwLyoiLCJDb25kaXRpb24iOnsiRGF0ZUxlc3NUaGFuIjp7IkFXUzpFcG9jaFRpbWUiOjE1Mzk2NjMwMDF9LCJJcEFkZHJlc3MiOnsiQVdTOlNvdXJjZUlwIjoiMTI1LjE4My4yMDQuMC8yNCJ9fX1dLCJ0aWQiOiI3MzUwNzQyNjYwMSJ9&Signature=I2CMGW8GKkiKS1Zl1SHzPdB~5WlpYa0zX0e1dthGC-SK-7MgP43xGUhLid119eUvyrylprfe~ja19WZVfNXQUsJvPEf4j4CZz99y~RMzeO5xyqDslyCaGVTbEHZt6CYD-agvzFjWjA3PGzImASfKj2imL7tnSVCns4wd-mqqTAynZfxrv-N-ftlTGIjgJd77ViZCX1hZ6-6c0E1RtpxCXAl-z2BIgswg6cszEA54bunUAgnpYqJqaEg2~bYLpHYRo~f3qrZJzDkZZeipKnpmwGD9S9z1LdYZHjRZDR~iK8EMaQVHF5J~bEm~p8OTd12xuFygEIrxIesTMjEg87m~Qg__&Key-Pair-Id=APKAJ6KCI2B6BKBQMD4A
p58
sVK04
p59
Vhttps://live-su.cdn.pooq.co.kr/hls/K04/1/2000/live.m3u8?Policy=eyJTdGF0ZW1lbnQiOlt7IlJlc291cmNlIjoiaHR0cCo6Ly8qLmNkbi5wb29xLmNvLmtyL2hscy9LMDQvMS8yMDAwLyoiLCJDb25kaXRpb24iOnsiRGF0ZUxlc3NUaGFuIjp7IkFXUzpFcG9jaFRpbWUiOjE1Mzk1ODE0MDZ9LCJJcEFkZHJlc3MiOnsiQVdTOlNvdXJjZUlwIjoiMTI1LjE4My4yMDQuMC8yNCJ9fX1dLCJ0aWQiOiI3MzUwNzQyNTAwNiJ9&Signature=g0sQlwaXkrWLc9J~J39Bamm2-5eZHRPMpVuf~fZsaVe4etylCuC7RtxOl9gHgiiBQv~elcTTkl4PAvJ2JMbx5PZ1mAS5P7rvSOb4yBVTFNlaF1vHP7OF5i-CH3B~HxJKU2BcOjlgyZ0oOcRx2lp464oD0d0FqjEmFkifa9hy6sLVkumIY2XmfRXFIg9XUG7z1va3QlgAtDL4h4ayRx40rLu4XN3pJJD41h8lYphg4UTSMRvpqCsAh02hnYAX5ga1xn85tksSGY6uJfnvl1pjtgQTiMzo7gJx0zHu1Gz-NCvDwMRYfJfdgVR0OWIQqhR2609WsPVFnWT2JHdYkf~fDQ__&Key-Pair-Id=APKAJ6KCI2B6BKBQMD4A
p60
sVK05
p61
Vhttps://live-su.cdn.pooq.co.kr/hls/K05/1/500/live.m3u8?Policy=eyJTdGF0ZW1lbnQiOlt7IlJlc291cmNlIjoiaHR0cCo6Ly8qLmNkbi5wb29xLmNvLmtyL2hscy9LMDUvMS81MDAvKiIsIkNvbmRpdGlvbiI6eyJEYXRlTGVzc1RoYW4iOnsiQVdTOkVwb2NoVGltZSI6MTUzOTY2MDIyNn0sIklwQWRkcmVzcyI6eyJBV1M6U291cmNlSXAiOiIxMjUuMTgzLjIwNC4wLzI0In19fV0sInRpZCI6IjczNTA3NDIzODI2In0_&Signature=jkao59lOh-2CeU~YFbQxAN0qvtU3OpKfbmbsm8rhfLny5Mn428r6A4XPbt64FWPC1TtN4HWPRy7YjCIXWUocR9fCOwpTQvFBega0H8YOI-wnW~CZn4c3BwgoVQfo7S86TpNRbdQLSZQC~3BXBADWSJBw4NuSZJNtwtW6TJFRDocAFFGTlDPjkBDjZJVCn-dfQb7e2n46fLvuq1pYOlmI-Jx~QHITnPN8x-HCdoMHY-uHc7736i0z0WTl6kIx8l1-cRA56DorQUAfUar3HWwrsuxeqTkkSwD2zCtUGC47vshfaaY4NH2BoPCEEkMdq8BWW9JeiwbxSsMflrITYEbQ2A__&Key-Pair-Id=APKAJ6KCI2B6BKBQMD4A
p62
sVK06
p63
Vhttps://live-su.cdn.pooq.co.kr/hls/K06/1/2000/live.m3u8?Policy=eyJTdGF0ZW1lbnQiOlt7IlJlc291cmNlIjoiaHR0cCo6Ly8qLmNkbi5wb29xLmNvLmtyL2hscy9LMDYvMS8yMDAwLyoiLCJDb25kaXRpb24iOnsiRGF0ZUxlc3NUaGFuIjp7IkFXUzpFcG9jaFRpbWUiOjE1Mzk1ODQzOTh9LCJJcEFkZHJlc3MiOnsiQVdTOlNvdXJjZUlwIjoiMTI1LjE4My4yMDQuMC8yNCJ9fX1dLCJ0aWQiOiI3MzUwNzQyNzk5OCJ9&Signature=eiE8yPUHftxTdbZRJs39c19vJJ7c8zXH9f50m0ibKdvX39SFsW1GkpbTBTYNZ1Gp4k27TT03hQd8ZOHWSX6Y2qgZDv77WUeXj9j1jBAgqAqjqk4nuCLOmGAWvH~LYq3dmoKVIyOo5LPAWBrCP-GLKxDI0jEXyZQyeiOqfgiLHxOlII0o79DINbzPSPAHdbJ1hrJ4e9Lixhy7U2bTuBuKcNsD2Te6jR3nOLfF8ttZ~SuQqb0tCpx2blluRzK5ycfqk1KMAonaP-9wk7mKM5CPBFKNIAdUzb4TiHSu47tGai2hIDv2MarPcHWoJEF6OSHojka8b~Bk3SjO0BP2m02o7w__&Key-Pair-Id=APKAJ6KCI2B6BKBQMD4A
p64
sVK07
p65
Vhttps://live-su.cdn.pooq.co.kr/hls/K07/1/100/radio.m3u8?Policy=eyJTdGF0ZW1lbnQiOlt7IlJlc291cmNlIjoiaHR0cCo6Ly8qLmNkbi5wb29xLmNvLmtyL2hscy9LMDcvMS8xMDAvKiIsIkNvbmRpdGlvbiI6eyJEYXRlTGVzc1RoYW4iOnsiQVdTOkVwb2NoVGltZSI6MTUzODk0MzMxNX0sIklwQWRkcmVzcyI6eyJBV1M6U291cmNlSXAiOiIwLjAuMC4wLzAifX19XSwidGlkIjoiNzM1MDc0MjY5MTUifQ__&Signature=H~A~yg~m3BzZraWD5ZbCkZmB2rrREA22zD9tFc8R1hChIC~nM1SsZfFrJEwS6~kyh-1bUxADeZkYbKPidkzXUC-3RWNofIFvKSXpJs~sM8DBmw1kHvrI5L-eoy9LbpjzcrNL4HJHu1Bbj-dPmePUDYcZSW6IPiZhBkLhzPgb9r0HpNBGx2CM8pKOMlJrj8td2NnxEP06xtyXARG3XpyHv6S4JBGMyWR8jWj6HY1TbkVV5gLWQ3tWhY-AEzwGC5aTZtKsXSjnXcpu9B0T1pWEZ6tGcsTqQ0wTYC8noY3vlUEQZmjIK1mkl5UhFlOyjXFJS5R-rqA3sxRzM8GnUVFqHg__&Key-Pair-Id=APKAJ6KCI2B6BKBQMD4A
p66
sVK08
p67
Vhttps://live-su.cdn.pooq.co.kr/hls/K08/1/100/radio.m3u8?Policy=eyJTdGF0ZW1lbnQiOlt7IlJlc291cmNlIjoiaHR0cCo6Ly8qLmNkbi5wb29xLmNvLmtyL2hscy9LMDgvMS8xMDAvKiIsIkNvbmRpdGlvbiI6eyJEYXRlTGVzc1RoYW4iOnsiQVdTOkVwb2NoVGltZSI6MTUzOTE5MTcxM30sIklwQWRkcmVzcyI6eyJBV1M6U291cmNlSXAiOiIwLjAuMC4wLzAifX19XSwidGlkIjoiNzM1MDc0MjUzMTMifQ__&Signature=chUEBRGLhj-jGQkeNuH072gWAJtxC8UIcxlpBIemITse23E2Z0Rjtkrez3e~P8lfIflGed5gQaRFM4CzAq9qV39oP~f2fycqfwTX1WcdXcFGSphB~T4ghfZITuMnaLDXDLAXjekQ8OJDVKGej5q8VxVKfUB14ihd8Rb3VzqX9Lzhmgrx7uUpCflCvSThr0Fm7GWSgmSFSCvSRjo1S2K89omYwd~eYom3a5dh-eNASSV7FktfJwWHQtpoCXHcnvXDA~q3fMeKIILi3j15Zr8k29tI1DY7eg~Fy-dZ2AcRtvlsbE56g63cHrZvVui-MOu~ToBk8S0BiUhbjM0W5~QIwQ__&Key-Pair-Id=APKAJ6KCI2B6BKBQMD4A
p68
sVK09
p69
Vhttps://live-su.cdn.pooq.co.kr/hls/K09/1/2000/live.m3u8?Policy=eyJTdGF0ZW1lbnQiOlt7IlJlc291cmNlIjoiaHR0cCo6Ly8qLmNkbi5wb29xLmNvLmtyL2hscy9LMDkvMS8yMDAwLyoiLCJDb25kaXRpb24iOnsiRGF0ZUxlc3NUaGFuIjp7IkFXUzpFcG9jaFRpbWUiOjE1Mzg5Mzg5NTl9LCJJcEFkZHJlc3MiOnsiQVdTOlNvdXJjZUlwIjoiMTI1LjE4My4yMDQuMC8yNCJ9fX1dLCJ0aWQiOiI3MzUwNzQyMjU1OSJ9&Signature=gCMfxOd0u5jPlZKZuM7-ZR8FrBbYR56ZPEkdYeZVXtw59Ys9dUgnvPj6F8VHMbP1890yTHxyLdMkvxQ00E243mPAwyyZGAU6vzuvfNshKkQBtgcJ9QFwo3XJbMORl3vEQjTQUucD9V8tXMMKyiRjoz801iMLtOBIZe~mnMnog~50KbHNF-BZvnQ7rLqY2lKXN-OPbi6-erC7ApkMaS4HjD9z2kAFF5JW9guUBOmn2LXc9tnqF9YUzVs9WLQ-qrJ3iGso8N-a1ZUZD-Nbzuz3On9Y9yIHBgvYLlZnuICWK2l9WNBssCaes5Jj5v~v-oxlu602SmvwPciTmAkgD8OuLQ__&Key-Pair-Id=APKAJ6KCI2B6BKBQMD4A
p70
sVC4202
p71
Vhttps://live-su.cdn.pooq.co.kr/hls/C4202/1/2000/live.m3u8?Policy=eyJTdGF0ZW1lbnQiOlt7IlJlc291cmNlIjoiaHR0cCo6Ly8qLmNkbi5wb29xLmNvLmtyL2hscy9DNDIwMi8xLzIwMDAvKiIsIkNvbmRpdGlvbiI6eyJEYXRlTGVzc1RoYW4iOnsiQVdTOkVwb2NoVGltZSI6MTUzODkzODgwMX0sIklwQWRkcmVzcyI6eyJBV1M6U291cmNlSXAiOiIxMjUuMTgzLjIwNC4wLzI0In19fV0sInRpZCI6IjczNTA3NDIyNDAxIn0_&Signature=YC10WplsO7INHdtgpY2rrN4ICpatGeofQRP1Cvjx-eXi6-juw5QAqkafAm5FfQi3uksygIOar4Z-suqIFwtiGexUIwUnsjOR4YbMhc-s7pgxrK-8d78a-b9YK7auxBgvBNpD4PPFfVaZRA7thcc-HNSjhkWl5KTpjGYYOeIZzN3aZuXm~y09vZLlaNi0SxbQmWebBaJZlDztdZkjy2kz4krZT0gAX8Q6VDAkzAdiGN5uHBgdBU03a6NKJjvHSEi~0beNNbqnigzC7Mw~MD-wR9m8Yg1Njn7GeRBlkDVBS7HjEbda6P-iYu6z8wnhOMG4~TuWRrpIKW~3BDz1ePVpmg__&Key-Pair-Id=APKAJ6KCI2B6BKBQMD4A
p72
sVE05
p73
Vhttps://live-su.cdn.pooq.co.kr/hls/E05/1/2000/live.m3u8?Policy=eyJTdGF0ZW1lbnQiOlt7IlJlc291cmNlIjoiaHR0cCo6Ly8qLmNkbi5wb29xLmNvLmtyL2hscy9FMDUvMS8yMDAwLyoiLCJDb25kaXRpb24iOnsiRGF0ZUxlc3NUaGFuIjp7IkFXUzpFcG9jaFRpbWUiOjE1Mzg5NDM4NDd9LCJJcEFkZHJlc3MiOnsiQVdTOlNvdXJjZUlwIjoiMTI1LjE4My4yMDQuMC8yNCJ9fX1dLCJ0aWQiOiI3MzUwNzQyNzQ0NyJ9&Signature=Vxq42tKzU5SSMzWA0YPAh3lqRkQSFzTIaMiUE6sI6U1GpZFOomOBpDoBozOaugsclYuN9Bn0MDJZ1MptF8CyDtKtvLsydNAODGlcUeiVmGxtC5Uq01jcvJ1FewjwzNcnWgSE5SmJbZkqcjcctWQMyxE3GdmmgzLkr~C77tfKnPGmwCyjqd0TyvFYwU8woGtSJMmckclwmVrMDpIDZlAihJpUQMEV6VZdqaC1MNq9ZL1u5NwW64m-WDo3aSmBvBmaph2eFWYO3R~wpCvJsxgfO~cq2PrgCzzLllrBLcYnM2j4hDQ7MkKzUcipssJ3hffgfqNM80cowvQNrb8oYYhVVg__&Key-Pair-Id=APKAJ6KCI2B6BKBQMD4A
p74
sVD02
p75
Vhttps://live-su.cdn.pooq.co.kr/hls/D02/1/2000/live.m3u8?Policy=eyJTdGF0ZW1lbnQiOlt7IlJlc291cmNlIjoiaHR0cCo6Ly8qLmNkbi5wb29xLmNvLmtyL2hscy9EMDIvMS8yMDAwLyoiLCJDb25kaXRpb24iOnsiRGF0ZUxlc3NUaGFuIjp7IkFXUzpFcG9jaFRpbWUiOjE1Mzg5MzQ5OTZ9LCJJcEFkZHJlc3MiOnsiQVdTOlNvdXJjZUlwIjoiMTI1LjE4My4yMDQuMC8yNCJ9fX1dLCJ0aWQiOiI3MzUwNzQyODU5NiJ9&Signature=XMwa5GUPQIrwIXjabVdbaQAKBWmerbY41yRD6GFRDnre-WqYxxPmUxjPLhWkvBa1ERm4xKndCnNV6tJNwUoKNxchYAEagfqnT4ojADBs43v6-pnPEV~5440DK-Y7Gt70eLwpAUR1UI3dq1ij4nC1MVLroQPx5RvlOe2q9PzCnC0fwhEWqAk9S3kU~TK2lBr2SJukSU6qwYrYE~yYfOAJ5-~h076ZRbb~EIeQKFyGHCVSN85UM0-Aqgfr9G7ajQFOviy3P3aiL7WEqieQNxpAJXw~aQgjklAPTkblq3bkwrYU3FB4wNFDJB2XGvvRr9Odbn0WVHJhmbR5kqjIKYe9QQ__&Key-Pair-Id=APKAJ6KCI2B6BKBQMD4A
p76
sVE01
p77
Vhttps://live-su.cdn.pooq.co.kr/hls/E01/1/5000/live.m3u8?Policy=eyJTdGF0ZW1lbnQiOlt7IlJlc291cmNlIjoiaHR0cCo6Ly8qLmNkbi5wb29xLmNvLmtyL2hscy9FMDEvMS81MDAwLyoiLCJDb25kaXRpb24iOnsiRGF0ZUxlc3NUaGFuIjp7IkFXUzpFcG9jaFRpbWUiOjE1Mzk0OTM1NzR9LCJJcEFkZHJlc3MiOnsiQVdTOlNvdXJjZUlwIjoiMTI1LjE4My4yMDQuMC8yNCJ9fX1dLCJ0aWQiOiI3MzUwNzQyNzE3NCJ9&Signature=D-7K2xXYKvUVvybVdmlVcxfhhRQRQjWnPkizE91~JifDAC-MgoVBPG-vYWY9Wn3c~-BJjJrrJmxYXujjzgXllpNAVhqKxY-3jPiyXteu8y7HPWkZHaWYJcdtQaoieLXpj7fxOUmHRyDxajlozQfbBu1fpJG6QctJogkLib6Zly0OSunKNiIrM348slZUXYtaTSQzCAvUOxjRCnWXUKK08OPLR6sqAaTLFXEwa49cldjSnqSBrk9HiT4b-~Ld2JLXKR21zlKj6kSsiTje28Deu5KBpIf2VNWdRw2AAfquyBgQ8oIeaCZ-haTYeaSo-6yHaWQ477d2g4cmgcb0jJA-EA__&Key-Pair-Id=APKAJ6KCI2B6BKBQMD4A
p78
sVC2304
p79
Vhttps://live-su.cdn.pooq.co.kr/hls/C2304/1/5000/live.m3u8?Policy=eyJTdGF0ZW1lbnQiOlt7IlJlc291cmNlIjoiaHR0cCo6Ly8qLmNkbi5wb29xLmNvLmtyL2hscy9DMjMwNC8xLzUwMDAvKiIsIkNvbmRpdGlvbiI6eyJEYXRlTGVzc1RoYW4iOnsiQVdTOkVwb2NoVGltZSI6MTUzODkzNzQ0MH0sIklwQWRkcmVzcyI6eyJBV1M6U291cmNlSXAiOiIxMjUuMTgzLjIwNC4wLzI0In19fV0sInRpZCI6IjczNTA3NDIxMDQwIn0_&Signature=HSfOHjqG17GcY3F8FvecDuHLQrRJ1N6QB~FDe6nkLAY~CIvVoQ5tLYFHKFkslYurftagHB5rl0irXeiAuJDbkwO6htuJHsIlrugSY-lW0AE4~w3T0szhBh2xKq0rVo0gvsXtW6Mvq9C-Tt5wy8Mjz6QsmMM25CTNTgkWhn4Jt2K9G5hsmVUIi8lwI3CpB~F0Gqj1RUFIxbYjNY~KPsKDQyqWjzFCy5RZsABz~cREILDQ3rrkcy7LVVxg-d-Dgc2q90-n4Y6ggPjVcZyJkQtmU~IUUajtXuWuMHb8Pfg8HKrKhaJx0XMOotR9vDL8ecjmwss9sfpwJnSyg9NHoUehfg__&Key-Pair-Id=APKAJ6KCI2B6BKBQMD4A
p80
sVC2301
p81
Vhttps://live-su.cdn.pooq.co.kr/hls/C2301/1/500/live.m3u8?Policy=eyJTdGF0ZW1lbnQiOlt7IlJlc291cmNlIjoiaHR0cCo6Ly8qLmNkbi5wb29xLmNvLmtyL2hscy9DMjMwMS8xLzUwMC8qIiwiQ29uZGl0aW9uIjp7IkRhdGVMZXNzVGhhbiI6eyJBV1M6RXBvY2hUaW1lIjoxNTM5NjYwMjY2fSwiSXBBZGRyZXNzIjp7IkFXUzpTb3VyY2VJcCI6IjEyNS4xODMuMjA0LjAvMjQifX19XSwidGlkIjoiNzM1MDc0MjM4NjYifQ__&Signature=Fg6Y3D9GTXl08wy6WZfXRHqIYJEc2i~VTYF5E991NlhwhL6hj9aE4dikBGk3DTb2wsJzEvjgM~Ykhdk0Xyk59v-UL2WEFfS1ny1DUWW~tcBlRtd6pZn9zUmIYk3SyP4KeYEB0tGE5IiUZUusOX54V3SzrNUChix5m5f9hkcoRaNs9muKcuUwqX9a0H1TuuQQtxpKfqMeaIBsvvhdPFTXoWXyZcRd94H~YzwILZkfpN4e5t~LnGCfzB~0Vx9TuU~Ruoey~Qj46n6XwuLkJZelmIwrg38eiKy0pWHn~CuLt7ORI8pJMDZjyFNyyxF3cFDI2pIQsxTV-ayw6z3V24kniQ__&Key-Pair-Id=APKAJ6KCI2B6BKBQMD4A
p82
sVC2101
p83
Vhttps://live-su.cdn.pooq.co.kr/hls/C2101/1/5000/live.m3u8?Policy=eyJTdGF0ZW1lbnQiOlt7IlJlc291cmNlIjoiaHR0cCo6Ly8qLmNkbi5wb29xLmNvLmtyL2hscy9DMjEwMS8xLzUwMDAvKiIsIkNvbmRpdGlvbiI6eyJEYXRlTGVzc1RoYW4iOnsiQVdTOkVwb2NoVGltZSI6MTUzODkzODcwNX0sIklwQWRkcmVzcyI6eyJBV1M6U291cmNlSXAiOiIxMjUuMTgzLjIwNC4wLzI0In19fV0sInRpZCI6IjczNTA3NDIyMzA1In0_&Signature=EX4guOttcgCBfcneKdsQL155dAcH0jYodzaO8O2YUqTp6JG88UA3o3T43Y-Qcd0CPn5RbUJfE9ioX0YWRwTguh-3gxNaFb7BDd6nenrJMlNK-XnW4dRBnqcA9vFWwGxlvAi5jVNz3WrGhkblp2Uhy-EwaDXLcE35WYNy8yNLG9exNZNYQTzBe7wIx73elt5suBMIn6xPemss1cdOdrXRaBLJr-1KeapvEzSoKyFdYNgKNjOKJYcrIoZgPCiMeWCmzj83I6k5x1QZ35ozvKN6yrqlRlJcxuVKopWDLsgU1ycy4zFbScAc5xqlmHl1jxJbLcYA0J0xo~8TlHayh8xtIA__&Key-Pair-Id=APKAJ6KCI2B6BKBQMD4A
p84
sVS03
p85
Vhttps://live-su.cdn.pooq.co.kr/hls/S03/1/5000/live.m3u8?Policy=eyJTdGF0ZW1lbnQiOlt7IlJlc291cmNlIjoiaHR0cCo6Ly8qLmNkbi5wb29xLmNvLmtyL2hscy9TMDMvMS81MDAwLyoiLCJDb25kaXRpb24iOnsiRGF0ZUxlc3NUaGFuIjp7IkFXUzpFcG9jaFRpbWUiOjE1Mzk1ODI1ODB9LCJJcEFkZHJlc3MiOnsiQVdTOlNvdXJjZUlwIjoiMTI1LjE4My4yMDQuMC8yNCJ9fX1dLCJ0aWQiOiI3MzUwNzQyNjE4MCJ9&Signature=OarVPRSEQW3~bscjeW7nH-v14D5BdEtK8gwTH-KB9pM4GftG9hTF-iUyd80bs77BGqSFAtorFEhRDADIi2h0IUiBx2roxrYA1ln-jhZimvYjK~WZqm63EaB0LdC2dsUJSFyyNNnZSaFJV7ZojcApH5qk12V~FVeY5H5C6yObMNNHFbn96iYYOqVI84buUUDVOyS6wCOKOiCwjM4tOCBMP-g1U0FI-AdJZ6Nc51aMDltq3TEXpqhHodK5R58eTSuIq76CUyLmaXE9CxJra~N9qW7ZzxCQYmTZFprGRVgzmEOz1KSGCzCEPicv334LMrxzF4cXtlLxFg9~mxaUHAlTVg__&Key-Pair-Id=APKAJ6KCI2B6BKBQMD4A
p86
sS'recent'
p87
g38
sVC4701
p88
Vhttps://live-su.cdn.pooq.co.kr/hls/C4701/1/2000/live.m3u8?Policy=eyJTdGF0ZW1lbnQiOlt7IlJlc291cmNlIjoiaHR0cCo6Ly8qLmNkbi5wb29xLmNvLmtyL2hscy9DNDcwMS8xLzIwMDAvKiIsIkNvbmRpdGlvbiI6eyJEYXRlTGVzc1RoYW4iOnsiQVdTOkVwb2NoVGltZSI6MTUzODkzNzI0M30sIklwQWRkcmVzcyI6eyJBV1M6U291cmNlSXAiOiIxMjUuMTgzLjIwNC4wLzI0In19fV0sInRpZCI6IjczNTA3NDIwODQzIn0_&Signature=IJuCuaKJI8rj5EC~Y2wsA1PPx6E0g8ZrM68S8GydUmu3ijtIdJ76taTmVyutQ6CZSj0B8G6MNjPpy6DvuDb4MP4ADZRVP2DL8lyRsdmtes4f2LOZGMwuIXVKDuOhaT0kYeriFeN0HBuyhZ6BYYZKKvpVFMImtlMUaWPlZ~~rKeQtB5kTFWKxFeqx~nPjqSYpX4Aj3o9Kr6U-LfT7CEVKYqzlg6F~cOJdCmGcR5bdKMTXuTUleWN4RgcwfF5hLiD-FNrKgLE3wUNi6QL-P3jNQlhqdxR97V~EyDyfL5XUz0ivyKx8A4tKnYljRP2WOh81hVJkg15vujvX9NS~zL~kzw__&Key-Pair-Id=APKAJ6KCI2B6BKBQMD4A
p89
sVC4702
p90
Vhttps://live-su.cdn.pooq.co.kr/hls/C4702/1/2000/live.m3u8?Policy=eyJTdGF0ZW1lbnQiOlt7IlJlc291cmNlIjoiaHR0cCo6Ly8qLmNkbi5wb29xLmNvLmtyL2hscy9DNDcwMi8xLzIwMDAvKiIsIkNvbmRpdGlvbiI6eyJEYXRlTGVzc1RoYW4iOnsiQVdTOkVwb2NoVGltZSI6MTUzODkzNTAzMn0sIklwQWRkcmVzcyI6eyJBV1M6U291cmNlSXAiOiIxMjUuMTgzLjIwNC4wLzI0In19fV0sInRpZCI6IjczNTA3NDI4NjMyIn0_&Signature=gPPRRy6dD-kBxgfLp45kHkQlSqmOoBFY1tWCF6r9BSqNm9lTFGkbSl42qGQe-0Z19E~~0jnK-sUMKVEsx-xTrenb-tNgUt9Q8cHysK-KBzln85dC3pPPj8Fm0btccek4Fltf81WkHPeWJDZcycUh5rpeEYxyKUVLkd20hDciI45wmOsFv1QPYEv910YcEpF8Dm64BjWa4dfHAks8Auw3Xoyqr7O1NkfxgDdRPx1hLQHMNmhO~Leemdh0J3fils1fzd73zRfI3Ue3KJe~5j4WsUAfLd9PLWSLJguI0Ex7eb41fe7daI15aotRPJ0QbxiPfpZKmYua3OIPMU5t0ZSOGw__&Key-Pair-Id=APKAJ6KCI2B6BKBQMD4A
p91
sVS01
p92
Vhttps://live-su.cdn.pooq.co.kr/hls/S01/1/5000/live.m3u8?Policy=eyJTdGF0ZW1lbnQiOlt7IlJlc291cmNlIjoiaHR0cCo6Ly8qLmNkbi5wb29xLmNvLmtyL2hscy9TMDEvMS81MDAwLyoiLCJDb25kaXRpb24iOnsiRGF0ZUxlc3NUaGFuIjp7IkFXUzpFcG9jaFRpbWUiOjE1Mzk1ODUzNDN9LCJJcEFkZHJlc3MiOnsiQVdTOlNvdXJjZUlwIjoiMTI1LjE4My4yMDQuMC8yNCJ9fX1dLCJ0aWQiOiI3MzUwNzQyODk0MyJ9&Signature=hWxqiJTlA~iPsZTEmsYVWHlBz1DnfMKV-srDX1~LRtdmgWxF53HcGjsNxtLN2pzYr8YTOxk4WZliKC4pH7EeSY6Mkkf2utsVIXfYVrUAIdJHhcfUNTTqm~TgfvZGYtGKyxbaLX7dKqsxF9GG3bfjxUkeM8OxRBO8Cvx1riaaZ-FmZyyrtiM2FS7wEB-Ep2tYyOfvS1qzqruaEI8u9cszCFy4zExOwNNTUKfkE5LffClyBPiwDKWY-IbJHxHrALMJkl4KftUL3gBTuZf~LB4kRJgk0dZpAdrBDYkIZ-hpsZGQRf-BZUQNhxG1Gaf44r8j6Jp11LSIfSN6pHYLEaqiuA__&Key-Pair-Id=APKAJ6KCI2B6BKBQMD4A
p93
sVA01
p94
Vhttps://live-su.cdn.pooq.co.kr/hls/A01/1/2000/live.m3u8?Policy=eyJTdGF0ZW1lbnQiOlt7IlJlc291cmNlIjoiaHR0cCo6Ly8qLmNkbi5wb29xLmNvLmtyL2hscy9BMDEvMS8yMDAwLyoiLCJDb25kaXRpb24iOnsiRGF0ZUxlc3NUaGFuIjp7IkFXUzpFcG9jaFRpbWUiOjE1MzkxOTM0MTB9LCJJcEFkZHJlc3MiOnsiQVdTOlNvdXJjZUlwIjoiMTI1LjE4My4yMDQuMC8yNCJ9fX1dLCJ0aWQiOiI3MzUwNzQyNzAxMCJ9&Signature=boEp20VpatkbMmIihGOllSmx4E4sV7TeENdrxWLPK5cyZcNKnqyUcK64Xf~44Mc~MppOc4kFUbiZnreqjrwD4TuGBdIrZy1O6HIGP0yoUqXxUshb9uqijQonMibq1kIsaKwMeeFXOtylSRqosmCDwWHEdnGrLo~lOwP7h3AUvScpKqx9B2Ns2OTTj-HsFtKjwlH9eIwlyEqhNqZwSy8JEAonFqXYGE1i1uWHhVj3N3489z9aW7wPPpCTfZFrUqGkw0HgxW4Bq4Flp8mYrOQfxv~g6AxFh9J2ZbgeTSC7FgJdVULeACEdqS4-LDoqpAo2en-Rxoz03WZtCfgwwsG3og__&Key-Pair-Id=APKAJ6KCI2B6BKBQMD4A
p95
sVC3901
p96
Vhttps://live-su.cdn.pooq.co.kr/hls/C3901/1/500/live.m3u8?Policy=eyJTdGF0ZW1lbnQiOlt7IlJlc291cmNlIjoiaHR0cCo6Ly8qLmNkbi5wb29xLmNvLmtyL2hscy9DMzkwMS8xLzUwMC8qIiwiQ29uZGl0aW9uIjp7IkRhdGVMZXNzVGhhbiI6eyJBV1M6RXBvY2hUaW1lIjoxNTM5NjU5MjYxfSwiSXBBZGRyZXNzIjp7IkFXUzpTb3VyY2VJcCI6IjEyNS4xODMuMjA0LjAvMjQifX19XSwidGlkIjoiNzM1MDc0MjI4NjEifQ__&Signature=VS45C-vsUNiQ457FFvhtkNdz7t8AB4Wu2Fx4osyDMoeAAcLn~BGwbcr7r4Hf4rTt9ZCYUaWl2xJ3-xXyVm8YKmxyPknIiQBruRYBsSEi9edbL4mfZmDEFCCQW1Q0CEx3N43ieOO8K5Gk0WaHeJTVESHyzC2LnrsmNR6-BsyYQF9iVOi28o7A~ozmnIDbpDqmg63e6VfeLVQq5g4ig9aIGPON7o1mvJLzJz-cFXJ6agqVdDs08HZ5nV-i3DLfplmMp3UOoG8YP1~q6sAdtbDDcXElnxyCYtn7ZzYSfSn3E72f~APKQjU1uvLkN8yOSuJ73qG-g20gf5duA4vRrOY3Fg__&Key-Pair-Id=APKAJ6KCI2B6BKBQMD4A
p97
sVS04
p98
Vhttps://live-su.cdn.pooq.co.kr/hls/S04/1/5000/live.m3u8?Policy=eyJTdGF0ZW1lbnQiOlt7IlJlc291cmNlIjoiaHR0cCo6Ly8qLmNkbi5wb29xLmNvLmtyL2hscy9TMDQvMS81MDAwLyoiLCJDb25kaXRpb24iOnsiRGF0ZUxlc3NUaGFuIjp7IkFXUzpFcG9jaFRpbWUiOjE1Mzk1ODE2MDl9LCJJcEFkZHJlc3MiOnsiQVdTOlNvdXJjZUlwIjoiMTI1LjE4My4yMDQuMC8yNCJ9fX1dLCJ0aWQiOiI3MzUwNzQyNTIwOSJ9&Signature=MnKd5s3urOzsD-mgH98BXogKQ74p-d1jW0X1NP~GTs9ZfLlCbdQgqoU~BXvT3oXAA3aKlQM1feddLQyqPkw4fUeY6YwhlaDhQYa5rAHC7GPTHaOmeWlUtnvQwuAS2dVWiqH8pINUfJ4l-xX7Qz9zNVTDeeIY2XGBsHQ33LwPqPNigJYt3ShgdN7OtN1d5RBR632UC~nsngQ1cCGY61onaoowjOJmTZVzF6lVBewGIJ8~MY-vXDmMtt-cxzBvmwQ~ipgo3-9F8RSKUENKuT4G0LDcwJmGvoTNYdpx0jv8h~SDWS5ONaPrq8bCugkKeBMVyT3e4Hkj0SBlE0sOfjahxQ__&Key-Pair-Id=APKAJ6KCI2B6BKBQMD4A
p99
sVS06
p100
Vhttps://live-su.cdn.pooq.co.kr/hls/S06/1/5000/live.m3u8?Policy=eyJTdGF0ZW1lbnQiOlt7IlJlc291cmNlIjoiaHR0cCo6Ly8qLmNkbi5wb29xLmNvLmtyL2hscy9TMDYvMS81MDAwLyoiLCJDb25kaXRpb24iOnsiRGF0ZUxlc3NUaGFuIjp7IkFXUzpFcG9jaFRpbWUiOjE1Mzg5Mzg3MjB9LCJJcEFkZHJlc3MiOnsiQVdTOlNvdXJjZUlwIjoiMTI1LjE4My4yMDQuMC8yNCJ9fX1dLCJ0aWQiOiI3MzUwNzQyMjMyMCJ9&Signature=ii8slRx71LDxEtXEfHSfoLI2g42FjTMIvusFY-hejMHmszeDUvmKRVPSgx-7jvEBSkliVu-0uauarDOjUCRk0nd869gahTO-xDo9zxOleU6q42kXwIVsXjmy2r7mQrdGWfxV1QbLv43r~K56xXgmXLyHe4NQAcdPTUx-F85RunrJfGX2D-eRwoV0BJYJ16KeJWXK6YZVAu3JavDYngaX97C7KeItiL9fabvJyrR0ykyOqXFyv-ZIJIGbDCPCjdvfsrbTbz0yfhKouMvbJ4uvyTFpK86j8GNobSD0g9Aq2B9sAiZVmcBbpv60nh7YpZ9Dpo1es9ZP1Xn8mHQgHxepVQ__&Key-Pair-Id=APKAJ6KCI2B6BKBQMD4A
p101
sVS07
p102
Vhttps://live-su.cdn.pooq.co.kr/hls/S07/1/100/radio.m3u8?Policy=eyJTdGF0ZW1lbnQiOlt7IlJlc291cmNlIjoiaHR0cCo6Ly8qLmNkbi5wb29xLmNvLmtyL2hscy9TMDcvMS8xMDAvKiIsIkNvbmRpdGlvbiI6eyJEYXRlTGVzc1RoYW4iOnsiQVdTOkVwb2NoVGltZSI6MTUzOTI2OTA2MH0sIklwQWRkcmVzcyI6eyJBV1M6U291cmNlSXAiOiIwLjAuMC4wLzAifX19XSwidGlkIjoiNzM1MDc0MjI2NjAifQ__&Signature=YY1j9DcLiOa-NkjzTzkMp1fPti3v3Mmm7-hx2agrKwdiA8elkWWJ3WTy7p9gN5iHssIaYfLRmXzbYqpmxkiYKOoLhH2kYPo3eb4ol5g6WKT9EAXGv4br04nXfR45SvJyJAtRiRyRcM8DrCek62N8FzirVdUo-W-4Tj7mqYCiJ3CMLbYuG7QBXct07LaJKc-XTBi1esR7BPV5pkpaGK3dT56MoYo8ZR3aDUhDCpIEPUirm4ibWHmySYd1flGyqOQLBjq4kiDV0Vn0xUta1xbfSpwKvOZ8dJWeSiZSN6w2pf9aNM6m6phtjrm7AzB0v-peu4AdFU-oGp85RbY2MtIPvw__&Key-Pair-Id=APKAJ6KCI2B6BKBQMD4A
p103
sVC5901
p104
Vhttps://live-su.cdn.pooq.co.kr/hls/C5901/1/5000/live.m3u8?Policy=eyJTdGF0ZW1lbnQiOlt7IlJlc291cmNlIjoiaHR0cCo6Ly8qLmNkbi5wb29xLmNvLmtyL2hscy9DNTkwMS8xLzUwMDAvKiIsIkNvbmRpdGlvbiI6eyJEYXRlTGVzc1RoYW4iOnsiQVdTOkVwb2NoVGltZSI6MTUzODkzODc0MX0sIklwQWRkcmVzcyI6eyJBV1M6U291cmNlSXAiOiIxMjUuMTgzLjIwNC4wLzI0In19fV0sInRpZCI6IjczNTA3NDIyMzQxIn0_&Signature=VqMeNnAtvRS~SJjXxty6zKuK2KPiNk3GUEGOP9SSGdD4gL3G2ocpGP9ZOiJSBt4zugAp3oZIyb3CbpFzCiTku7V2MAL85NxjMOwAJO3GXdSyMylPnUobsnh56pTpM5bzY-cZDuXa1-BRsrTr3vJLFe3PMkYWKLpTIJJJxBdLWqCOVpFYVl-ylYpTsN6wkINjp9ntuIkZJWkQbslCHD-lNWoQN9mBNY-fxDQIknx0WJZLNgiHvnMyQqjZHBlAMf7XoRjHCPHieo4k-Jhzi8fSVOJzv5wv28ZAglqiTHx6sgnk19ize1sm8LOG~siMALk-Rm4wqkdYFrn~kVEGOMbG~g__&Key-Pair-Id=APKAJ6KCI2B6BKBQMD4A
p105
sVC5902
p106
Vhttps://live-su.cdn.pooq.co.kr/hls/C5902/1/5000/live.m3u8?Policy=eyJTdGF0ZW1lbnQiOlt7IlJlc291cmNlIjoiaHR0cCo6Ly8qLmNkbi5wb29xLmNvLmtyL2hscy9DNTkwMi8xLzUwMDAvKiIsIkNvbmRpdGlvbiI6eyJEYXRlTGVzc1RoYW4iOnsiQVdTOkVwb2NoVGltZSI6MTUzODkzODc2Mn0sIklwQWRkcmVzcyI6eyJBV1M6U291cmNlSXAiOiIxMjUuMTgzLjIwNC4wLzI0In19fV0sInRpZCI6IjczNTA3NDIyMzYyIn0_&Signature=jLS65XqtAkb3qT1sK3E6cryvyMSUn55NyxY6vMt3KteT0yarbPOmIVnFzjpqmiGVHm4fGElVuRdl6ryFkn5B-FlIPxmzHElPuVOkZYcgR-jV9jc7uHGNDSZfJpA4B6fy-lHzXULHCYWNhNLt64iQiyN55hitT6v7B6i7Rx5ra3Dz73HLTe7c5OggvMLRmDOs7ZT5jY9Dsy0-yS38n7ih0NQOUkbUlbQjFKIHWgw-O3GCcakB7pLGwGujORk2-p1olYww~-G2lnJAyIauOHWXaScvvqL8Z7FgbVOb51E3pCdao~cpWYlhIFOmaBtBJAdo0qR-6CCrSqa47QyLTh3lNg__&Key-Pair-Id=APKAJ6KCI2B6BKBQMD4A
p107
sVM12
p108
Vhttps://live-su.cdn.pooq.co.kr/hls/M12/1/2000/live.m3u8?Policy=eyJTdGF0ZW1lbnQiOlt7IlJlc291cmNlIjoiaHR0cCo6Ly8qLmNkbi5wb29xLmNvLmtyL2hscy9NMTIvMS8yMDAwLyoiLCJDb25kaXRpb24iOnsiRGF0ZUxlc3NUaGFuIjp7IkFXUzpFcG9jaFRpbWUiOjE1MzkxOTMzOTJ9LCJJcEFkZHJlc3MiOnsiQVdTOlNvdXJjZUlwIjoiMTI1LjE4My4yMDQuMC8yNCJ9fX1dLCJ0aWQiOiI3MzUwNzQyNjk5MiJ9&Signature=gnhm6607OidDjpVKxjb2SFn0~L~rMrvZ~V7nbbJCZzHh7yjThtssj7ZciKlkHQi6XykCYmGcX~3ELxPuMlF-A~8Bssv2MrsaGNoSUtSz-NkP17~ZcPYlxtSYpdV~TlvL5uiNN0BgsK-qoCliuXuNUhWMdwqNMo0i0hSp-R4dE-beUzjNrm3XR2GIIZlYAYAqLTxYBdF6EQONSf7~DR8N60v0v7PGdB2hycJvpzOga79FtU~23mWBQKvQWpTmIoKhfHQ6tf4jLYNp4WQLaBo~QihPcDgJn32H557dShD4q~KqPxiaDDxfKXW1492~dVzG4IKKfeZBRHCjRoabweKk5Q__&Key-Pair-Id=APKAJ6KCI2B6BKBQMD4A
p109
sVC2401
p110
Vhttps://live-su.cdn.pooq.co.kr/hls/C2401/1/2000/live.m3u8?Policy=eyJTdGF0ZW1lbnQiOlt7IlJlc291cmNlIjoiaHR0cCo6Ly8qLmNkbi5wb29xLmNvLmtyL2hscy9DMjQwMS8xLzIwMDAvKiIsIkNvbmRpdGlvbiI6eyJEYXRlTGVzc1RoYW4iOnsiQVdTOkVwb2NoVGltZSI6MTUzOTI2OTA0MH0sIklwQWRkcmVzcyI6eyJBV1M6U291cmNlSXAiOiIxMjUuMTgzLjIwNC4wLzI0In19fV0sInRpZCI6IjczNTA3NDIyNjQwIn0_&Signature=O0ZBAMcfdHCQrQ4ghqyrGtiNV~e2Idi7rUir3Xy21dgvuwl~mJ8JeOvWVG5BJwQ50bKwKojRPSweYq5zXDOmTDSx0RVoPx8gaTXWh0vWqcDpdwkcXcfc7cYTTj3jj~6RPhnYYy2FXZBOQod6mRj7z00aYjw~A8L6-kuvHFEmlWOlvBHaCzADhspY5OfUztQgVanQHRkX8PknMLwIQA4kRXQLn9tG40icHUn1bhqfTa8blZXLG7cMZH84gec3TBEPl360i6Gjq7Yhjsw344YMoIxPTOPcnlJRT1iBYfteJAzFUXMgLEmFlljWV2gH7pWusNO7PB3Fj5OjCOsL1JiC~g__&Key-Pair-Id=APKAJ6KCI2B6BKBQMD4A
p111
sVE07
p112
Vhttps://live-su.cdn.pooq.co.kr/hls/E07/1/500/live.m3u8?Policy=eyJTdGF0ZW1lbnQiOlt7IlJlc291cmNlIjoiaHR0cCo6Ly8qLmNkbi5wb29xLmNvLmtyL2hscy9FMDcvMS81MDAvKiIsIkNvbmRpdGlvbiI6eyJEYXRlTGVzc1RoYW4iOnsiQVdTOkVwb2NoVGltZSI6MTUzOTY1Njk1MH0sIklwQWRkcmVzcyI6eyJBV1M6U291cmNlSXAiOiIxMjUuMTgzLjIwNC4wLzI0In19fV0sInRpZCI6IjczNTA3NDIwNTUwIn0_&Signature=e5yKr8gC93kav3wR-tKJa6LSW1T~ZfksCm~HjMe96fNveZM9Q0ADbPHmhX4oa~9l3Lff3N4Klb4r5U1qQd9Vu6z-eyewTZkXkk2GYvHU85bdyA-kAPe1odvGyLd-Zk8IZhF-N8ucl0H1w4KS6Oz2-SkKUaSfLHhzw6n7Q-rRsFxtfR0sF1yUzi9zsA23OloaEdo66ZCcA0YGgMg~0JFdKdtLuwKvv~~AoOlFyA7gIESL1Hsg9hKS3geCk4Gl3DA~VgyLlfr85eQP6qGFiCQujNdNghfRxt243bW-fVKdAoYOUYQir2VyL1ykLtZJf6-Cmmo2RuQ1QjV8lMJV7j5hxA__&Key-Pair-Id=APKAJ6KCI2B6BKBQMD4A
p113
sVS02
p114
Vhttps://live-su.cdn.pooq.co.kr/hls/S02/1/5000/live.m3u8?Policy=eyJTdGF0ZW1lbnQiOlt7IlJlc291cmNlIjoiaHR0cCo6Ly8qLmNkbi5wb29xLmNvLmtyL2hscy9TMDIvMS81MDAwLyoiLCJDb25kaXRpb24iOnsiRGF0ZUxlc3NUaGFuIjp7IkFXUzpFcG9jaFRpbWUiOjE1Mzk1ODA5Mzh9LCJJcEFkZHJlc3MiOnsiQVdTOlNvdXJjZUlwIjoiMTI1LjE4My4yMDQuMC8yNCJ9fX1dLCJ0aWQiOiI3MzUwNzQyNDUzOCJ9&Signature=KRpzMOuQxCCuCjPiwCkOEGmgTeGJFpZhN7XKHKCy8I8ooF82U3T1PVJ-WR3pc2ymROda9WUlJpB~p4dc5ZfFpmRTIZZQSaliJk58F9r8TRKI~mv5nqcpdq-O8f3L6uD9zIUYTHcAS-t1OcyV2QYpL1NESMla2QtRYp-AYlPfo3wP2hPNSrRk3DEadEZOd9y0meB9HeBEKZDbHpmeYW6wb3Or5m2~hGHW8RPM2Wl1ER8aoe7b~CHBEVk5sLRGUxMfI4dYXBygbOyRrHVZY62TKOVSoDuKvOrlcW-GeVuWObRmt9Tblis0L-eJ8G6oykjlwZbDzI8S~2uhao4YQON1rQ__&Key-Pair-Id=APKAJ6KCI2B6BKBQMD4A
p115
s.