(dp0
S'K12'
p1
Vhttps://live-su.cdn.pooq.co.kr/hls/K12/1/2000/live.m3u8?Policy=eyJTdGF0ZW1lbnQiOlt7IlJlc291cmNlIjoiaHR0cCo6Ly8qLmNkbi5wb29xLmNvLmtyL2hscy9LMTIvMS8yMDAwLyoiLCJDb25kaXRpb24iOnsiRGF0ZUxlc3NUaGFuIjp7IkFXUzpFcG9jaFRpbWUiOjE1MjczODM1NzB9fX1dLCJ0aWQiOiI3MzUwNzQyNzE3MCJ9&Signature=IXIbj1gtEcyayUeNHCaG-LeaI1ToPgqUnc5nE0y2jTp4MHiarzcYrHzDf6y610eBI8q3JrPgQTUi9fRPuyFwk5XCA00P~JHUs838pTCMY6qYrNt42iILQnIEMxM6rbetroFxzCw7PvrZbnmpMHpbFmm3u6qjqy~Zj0zeHgtjLxROrdZE6GufxiWdT5ePjdwC5pZ4bkeeQ5PCbBpB~0oeYQ8JZbkiK3srdSw-MtlMq6NcbkHVOwFJdyxBxJT5dNMR2Y9cAuYfzKQBwZLO4p2V1pigR9pNqkhX1HCERVutiPxlC9Hh-ZuGuXaBXaeEuiR4U-5UXujqheYCLl4sqMg73g__&Key-Pair-Id=APKAJ6KCI2B6BKBQMD4A
p2
sS'Y01'
p3
Vhttps://live-su.cdn.pooq.co.kr/hls/Y01/1/2000/live.m3u8?Policy=eyJTdGF0ZW1lbnQiOlt7IlJlc291cmNlIjoiaHR0cCo6Ly8qLmNkbi5wb29xLmNvLmtyL2hscy9ZMDEvMS8yMDAwLyoiLCJDb25kaXRpb24iOnsiRGF0ZUxlc3NUaGFuIjp7IkFXUzpFcG9jaFRpbWUiOjE1MjczNjUwNDZ9fX1dLCJ0aWQiOiI3MzUwNzQyODY0NiJ9&Signature=dvGuhHf8Tibwacry9jXcaiHDpuXOEfwGrqAds0KdvNaqtW3peiCDPFcAfnCFMbVcyo-SzJGhoQz1tySaoc5kB3rrril59Yt0VAuT-O3g8W8ADK8AwRVofXqdjqyoW6qWZUhjWD6r8VcA-3pdSzpTDJXdehbFz2G-xTcFuxakLCzbeBT6mWtAEdJ6Pfh5xq4-lHkPaqwsJO1ZbKo3MDaZqZyfVeb4t0C06UhyfntSxNwJmCljF~m24hEasiuO-McSwItKzpCWxv4Eh3EWIKJ7oIpxBDxtA~UVZrnqOXGjJI5Yjm~jukqJqCM2ZuYKIJNRv2r9VowcBK1c6JleRkLfSA__&Key-Pair-Id=APKAJ6KCI2B6BKBQMD4A
p4
sVK17
p5
Vhttps://live-su.cdn.pooq.co.kr/hls/K17/1/2000/live.m3u8?Policy=eyJTdGF0ZW1lbnQiOlt7IlJlc291cmNlIjoiaHR0cCo6Ly8qLmNkbi5wb29xLmNvLmtyL2hscy9LMTcvMS8yMDAwLyoiLCJDb25kaXRpb24iOnsiRGF0ZUxlc3NUaGFuIjp7IkFXUzpFcG9jaFRpbWUiOjE1MjczOTg0NDJ9fX1dLCJ0aWQiOiI3MzUwNzQyMjA0MiJ9&Signature=UXekEZdS9ky4R9ALdthKl1z3avw5cYQcGlT3CvxlsZoFp0bPmdwBbGx1f2I6NCDKH0fHblYBnCROlhpeE4pURSBRuJCyXbPanxrynoBroZgcycSRYhaPaWHH-uiXKrSLvLq3gHWYduSzy2pY0B~7HKAG~MIarFTOCty62OAiA3mRwk7jkM-ZnTeMv1vmBnLLSoO2iTFez9R8leGj81nMrWdGisjfScmMPr4lG4Rm7oRZsanjdOLT6nxVSLucU0cpP2Swo-gzHRqh29QyYPQcwKbVOW16DvdWxfvFvdpjq0QKbqlihnyUJRF5T9jh-IXwgU6brK6FSE95MmQx6inTww__&Key-Pair-Id=APKAJ6KCI2B6BKBQMD4A
p6
sS'K15'
p7
Vhttps://live-su.cdn.pooq.co.kr/hls/K15/1/2000/live.m3u8?Policy=eyJTdGF0ZW1lbnQiOlt7IlJlc291cmNlIjoiaHR0cCo6Ly8qLmNkbi5wb29xLmNvLmtyL2hscy9LMTUvMS8yMDAwLyoiLCJDb25kaXRpb24iOnsiRGF0ZUxlc3NUaGFuIjp7IkFXUzpFcG9jaFRpbWUiOjE1MjczNjMyMjl9fX1dLCJ0aWQiOiI3MzUwNzQyNjgyOSJ9&Signature=ZBTkQkdqHXzMrhK1wG4gEhoylCB5YrMKH0V6sARpAHSSZne20HTlVMzB5sFSORA8pxvN3jBqVdJo51zwpjRM~r8A0p~WuA79wZYrXLO7S3S6MVZs~wJeRFYiTZ1Wq0xIbXWtW7kbv1fimaAz4tQUIm8YgoW27HkRGiUuKIMzGMp2pPCycM8Et0NX4~dXV7ug455IJld-~hlGpcMOnHqFXkkcZqLwHwohXVjTmb3hON7bl5JKBYRd4G8~L-mB5jV3uOYOIH7rs8Owx1DUCR1Hr1W9iwkx0WW5Yf44Tsiu7oBW01mbLXLO9uK7LZgrZLTu7UqyylFoI2Y3YAKrzQir8w__&Key-Pair-Id=APKAJ6KCI2B6BKBQMD4A
p8
sS'H02'
p9
Vhttps://live-su.cdn.pooq.co.kr/hls/H02/1/2000/live.m3u8?Policy=eyJTdGF0ZW1lbnQiOlt7IlJlc291cmNlIjoiaHR0cCo6Ly8qLmNkbi5wb29xLmNvLmtyL2hscy9IMDIvMS8yMDAwLyoiLCJDb25kaXRpb24iOnsiRGF0ZUxlc3NUaGFuIjp7IkFXUzpFcG9jaFRpbWUiOjE1Mjc0MTc2ODJ9fX1dLCJ0aWQiOiI3MzUwNzQyMTI4MiJ9&Signature=NQzQ1yLlSEja9H12lBPStgcMwhJq6RHgcCHU5IuoNdfOSJLjTi~iiij3Job4obV9ak2GMxkNL~O9PkXtpoWSZzv94dajWZv-QuRAYUOir9xKo6VNWrhTfLuX-DFpJDYOrErBtvKzjy0LN0EWv1Enzhz78z~x89YPon3GHFPUXQCQXDaikXISFICg1SyJtKAH8URKvbs3y1tybOUDcNA2cZWA05LsTw2i4AoQCi-FCj~FQVw3h2DAqP1mWYdnRnCliNymGcKija4gP63Aj56jzghd1cfnXh~EM30zUUGmFG9mHHZnkYkiB-KfWQU52OiB9f2s0mNJlYf02h2D6ypPpg__&Key-Pair-Id=APKAJ6KCI2B6BKBQMD4A
p10
sS'H01'
p11
Vhttps://live-su.cdn.pooq.co.kr/hls/H01/1/2000/live.m3u8?Policy=eyJTdGF0ZW1lbnQiOlt7IlJlc291cmNlIjoiaHR0cCo6Ly8qLmNkbi5wb29xLmNvLmtyL2hscy9IMDEvMS8yMDAwLyoiLCJDb25kaXRpb24iOnsiRGF0ZUxlc3NUaGFuIjp7IkFXUzpFcG9jaFRpbWUiOjE1MjczNjI0Njh9fX1dLCJ0aWQiOiI3MzUwNzQyNjA2OCJ9&Signature=LrNNKfDj2US5oPv9ohTEA6nRTa-PqTqP-iD1uqbIw6nWrl5CJPtbZROkdxrLnIoc6~iGm1X2EQ-Tx6O9AtIHOIhcEShwQp8NM28KyysKCrqeuNDSrwbmX0LvSkrDg8xNZEEWyB0a941GEvhsOSIPg6XxnPWxkH9yTx6pCt8vu7ioIC4rWUnr0I6GaIexlQdD~zag3cIUQyBdV7kJPRG5jzihkgx5S-t9GMflw2d~53SE~PWrLt9B-zFxfHT1DS5H99ZqkfH2I2zzMlI6ZIlQ6Ww6e-lvOc7JrAyqJOVP-NVtYvEvz-j5GP63lBJM7Z5oFcUp3UGwjOIG6FfkNuNslw__&Key-Pair-Id=APKAJ6KCI2B6BKBQMD4A
p12
sS'K18'
p13
Vhttps://live-su.cdn.pooq.co.kr/hls/K18/1/2000/live.m3u8?Policy=eyJTdGF0ZW1lbnQiOlt7IlJlc291cmNlIjoiaHR0cCo6Ly8qLmNkbi5wb29xLmNvLmtyL2hscy9LMTgvMS8yMDAwLyoiLCJDb25kaXRpb24iOnsiRGF0ZUxlc3NUaGFuIjp7IkFXUzpFcG9jaFRpbWUiOjE1MjczOTgxMTh9fX1dLCJ0aWQiOiI3MzUwNzQyMTcxOCJ9&Signature=Qe1AylHJ3yVtl3Q1ItzQljm84srcy54DqBqomxM1Qz41DkbW56vIGi4ULvaPHhm~gCiM02bJGGeq5vtu9qvD4NsjYIf3fQ6nggEN-WCYVlhS29dPD3026L3hmHB9djqPnn~KKVNUHhOOgvxenN8rWLAnnfyKr14y2g5vQCY4JUc8qQ8mnE0qaliqV61LOrMn4zOkTv5CFYTGUkzcdoXcs3IwOQvRi5nTyMakFxPg7-h5baCSNQPfn8nMndM0I5aykvAgt-1lmwRpjQVNpnC9pRAFynY-gKEqj~Ml4fD9SAJkck8SgKx-2vmXMaBlAjDC6RpRXtjnACWmA1aVY79lzw__&Key-Pair-Id=APKAJ6KCI2B6BKBQMD4A
p14
sVH07
p15
Vhttps://live-su.cdn.pooq.co.kr/hls/H07/1/2000/live.m3u8?Policy=eyJTdGF0ZW1lbnQiOlt7IlJlc291cmNlIjoiaHR0cCo6Ly8qLmNkbi5wb29xLmNvLmtyL2hscy9IMDcvMS8yMDAwLyoiLCJDb25kaXRpb24iOnsiRGF0ZUxlc3NUaGFuIjp7IkFXUzpFcG9jaFRpbWUiOjE1MjczOTc4MDF9fX1dLCJ0aWQiOiI3MzUwNzQyMTQwMSJ9&Signature=KCPLcn5DqYbDtvzBkNSh813VtBDlTyUW-fpWqruIoQ3hXR8e1Ek~fL5Op~9cdgu7m4nuSAomERqH68ktgnaJzJy4036wYSlg-Jny8jn10P97vUojrxLtJcxsoMErsnc4-DK3ZEovJRgTl3NpiKTciYt0D5BRdrEKacPgJ6DuLwuryN3WezB1ONz3nigWM1C~-nKT-XVxqiHLMfnCPYpaIqRLPry9lNAIXUkcNY-EuycaiSsilhtLSpPtVxhhk8tAeGQjgPoGs7Pq9mE1nEYIMt53W22xeOij-6mTSED6ppNWIQfEIZ548dbv~FUKZegygkmOOJtV8rPTC-b2e~74yA__&Key-Pair-Id=APKAJ6KCI2B6BKBQMD4A
p16
sVC2703
p17
Vhttps://live-su.cdn.pooq.co.kr/hls/C2703/1/100/radio.m3u8?Policy=eyJTdGF0ZW1lbnQiOlt7IlJlc291cmNlIjoiaHR0cCo6Ly8qLmNkbi5wb29xLmNvLmtyL2hscy9DMjcwMy8xLzEwMC8qIiwiQ29uZGl0aW9uIjp7IkRhdGVMZXNzVGhhbiI6eyJBV1M6RXBvY2hUaW1lIjoxNTI3Mzk4MTkwfX19XSwidGlkIjoiNzM1MDc0MjE3OTAifQ__&Signature=fbJ64VqGr4UGgLr05DcRN57E5mLvKqxLpVyDypFs6G6m2obPC8vVdk1UMQAdsGNZsQ9ljmroGdE0qy3XMJ-1ZvGETif~OOJxJbrWxTyjkRv9CTjuODqUq-Lt1ev4tS48yV0neU4J~uWcZuQGqf9~KJx93oH~iHsNttK04S30htKFM2lV2pkvmXzrUkxVLYJn7h-bNd0hL6zYetdQSs0Z9s55CyYn-SLDYtEDMLgmQ1ig5KhKIwkwFZ0ElEyBJwkGIq3dVZR6WWM68rk2lGeQSCFP-9fHOIwSqSQN-BNz2uLpV83kHEo9my0AxmJePv-L47MncCa76KvF0EBueY5AmA__&Key-Pair-Id=APKAJ6KCI2B6BKBQMD4A
p18
sS'C4102'
p19
Vhttps://live-su.cdn.pooq.co.kr/hls/C4102/1/2000/live.m3u8?Policy=eyJTdGF0ZW1lbnQiOlt7IlJlc291cmNlIjoiaHR0cCo6Ly8qLmNkbi5wb29xLmNvLmtyL2hscy9DNDEwMi8xLzIwMDAvKiIsIkNvbmRpdGlvbiI6eyJEYXRlTGVzc1RoYW4iOnsiQVdTOkVwb2NoVGltZSI6MTUyNzM5Nzc2NX19fV0sInRpZCI6IjczNTA3NDIxMzY1In0_&Signature=ixFjEtgQO-VYiXUtmGv4If7rrFWzziIbh2jxwq2hu~lZeC0cyYzQtJUThxLV5iJiMS~ItYIzewbUK4wK7bzzjgEG-NSRIFzAbaX~C4d~Pu5gkQ563t5BLS8XgNiNmMIoBt-WrGUNZ8ROX5L2Y0TfZ5fVxc0Y~20hKKU51wniidTM9SlFINPVD1ErLzztEqDACf9jz4dQBQHMNCtmciTiO48U1Edu96S22rcYzFob7kkQMHoCuW~pDoyhJQZI3cbP~SA7JS-N86oL-AjeUSWCCvH~ckimGHRfi45eS9-jt5YpCHxFecVHgSQjH5WwNNDE6JfmNMAcPAXIkY8-IcFRCw__&Key-Pair-Id=APKAJ6KCI2B6BKBQMD4A
p20
sS'C4101'
p21
Vhttps://live-su.cdn.pooq.co.kr/hls/C4101/1/2000/live.m3u8?Policy=eyJTdGF0ZW1lbnQiOlt7IlJlc291cmNlIjoiaHR0cCo6Ly8qLmNkbi5wb29xLmNvLmtyL2hscy9DNDEwMS8xLzIwMDAvKiIsIkNvbmRpdGlvbiI6eyJEYXRlTGVzc1RoYW4iOnsiQVdTOkVwb2NoVGltZSI6MTUyNzM5Nzg2Nn19fV0sInRpZCI6IjczNTA3NDIxNDY2In0_&Signature=gGW7L-95SdxRl7j5ihlPpsuxIIYHlYKorPE7UwRsBkyXaCXg8M7PX4hR5P-NYby2JXU-LKyfyZr5avrHkm9BR8iuAfDCMG8c0UVGA2zO4PXWeRSZB8Z4w6DLjgQRxs8WQoESPD3jjPX3IWZoFqr3446I3esbN5KNZmMnWGpPYIAur9FwtqcYuOluoPqwL8xDC6ulq3sq49Clpwk5cwVb3SUYe5XUX3HsB64TFeVPydoC65g5pksSlGhifU76BSD8Ht9L7fX~8WZOnTmkgkU9SBzGQ4i5aA7TmxSieOB-ikOmxQCzlkTfeZEzyCqpm2SxJ622xZ6L~emyzR2G64WO~g__&Key-Pair-Id=APKAJ6KCI2B6BKBQMD4A
p22
sS'C2706'
p23
Vhttps://live-su.cdn.pooq.co.kr/hls/C2706/1/100/radio.m3u8?Policy=eyJTdGF0ZW1lbnQiOlt7IlJlc291cmNlIjoiaHR0cCo6Ly8qLmNkbi5wb29xLmNvLmtyL2hscy9DMjcwNi8xLzEwMC8qIiwiQ29uZGl0aW9uIjp7IkRhdGVMZXNzVGhhbiI6eyJBV1M6RXBvY2hUaW1lIjoxNTI3Mzk4Mjk4fX19XSwidGlkIjoiNzM1MDc0MjE4OTgifQ__&Signature=hlazWMh2vAdB8uT4QsVcMn2Rs~SgsEwwgRMC~YYm40CSjKdnbgIajDen1hDLNKeUHTvHxV2-r4T9W0fOxG7APs9eaaIe94nACfAWgwrhuIIRu9B3znzBjxowOt92n0Xkky3zuzvo~3c1N7-zVcLxJLHdIeicAYYZW8uuhEIV17tLqD15XGlh~CGUWqpTKBMqN5WnpSGm8eW9H-ur7xiyjqxvlwK9ssl084YCScd8ADXGd5LKfkHeFHqArVPles732SkNpS5z9nM8yd0rx10XKp8oouhyOsY2gSZq76bE35aitNI-VYbo12ly4vO2xN89kjo~wM9eI7PWEqlFTBVx0Q__&Key-Pair-Id=APKAJ6KCI2B6BKBQMD4A
p24
sS'C2705'
p25
Vhttps://live-su.cdn.pooq.co.kr/hls/C2705/1/100/radio.m3u8?Policy=eyJTdGF0ZW1lbnQiOlt7IlJlc291cmNlIjoiaHR0cCo6Ly8qLmNkbi5wb29xLmNvLmtyL2hscy9DMjcwNS8xLzEwMC8qIiwiQ29uZGl0aW9uIjp7IkRhdGVMZXNzVGhhbiI6eyJBV1M6RXBvY2hUaW1lIjoxNTI3Mzk3NjIxfX19XSwidGlkIjoiNzM1MDc0MjEyMjEifQ__&Signature=GP4cIGLEQ~ynRTYQYtdWU6Ex88gZBD5jEkneM6~-XYW01IixJOxl2HOrCPXUGlXyxk7296u7mVCcu3-1mOmnhrOkdds5~adPcJwvUFeTtGeu2sefVtdcigNRLztWNWG33aM3XnBFRuNOMVn~u~URVhN32d9RUlLMLg9T-3lrpSVNPNFIflrKJXDnbO0iN~ZTKY0eWQrAiN7Ph0K3wOJqXfdr6Yz-aq~crOVCjX~HDtcdB6gfMYQIiz78Z87GJ9ZnJ90fz7c0Y~2Vlb~pm9n~xkZCa7qr8U~KEcZlhzr7uVQN2XjfifWZMbdNgpfrT2zJZqr4IoklvjGaKYZhAwrzBQ__&Key-Pair-Id=APKAJ6KCI2B6BKBQMD4A
p26
sS'C2601'
p27
Vhttps://live-su.cdn.pooq.co.kr/hls/C2601/1/5000/live.m3u8?Policy=eyJTdGF0ZW1lbnQiOlt7IlJlc291cmNlIjoiaHR0cCo6Ly8qLmNkbi5wb29xLmNvLmtyL2hscy9DMjYwMS8xLzUwMDAvKiIsIkNvbmRpdGlvbiI6eyJEYXRlTGVzc1RoYW4iOnsiQVdTOkVwb2NoVGltZSI6MTUyNzQxNzY1OX19fV0sInRpZCI6IjczNTA3NDIxMjU5In0_&Signature=TV~7F59c7gAXTygAVhgnIB3novv~7Zt5YHSIVqmA2Rpsn9urUvMqHhctvVt8bf0tPGjU1vkpCSEYMX~5Eae9WfUYcc9fa0PPlBzKw~eF9CrRsbSbIyel0-Y79aTohiRAph40gaYdFUyyVF9fXU~~kPHfXNzQ~wyVnZPausVZl8IhBWPV2q9Szi~PZ2fJbfugTsMFhfaWPmdUbDmLdfz0A-1nAQz384DuPdvtMN54BYFC3IWPeUTZ5Mhq0Q4tND6OYo~VlgeVWjRfmgKry2m~xxUUInnc~XtPjK4pX-gjk4O2d08z0BOAc4mkSxFeQZke3Ulu1bKHgYdt1nFfv3z9mw__&Key-Pair-Id=APKAJ6KCI2B6BKBQMD4A
p28
sS'PM1'
p29
Vhttps://live-su.cdn.pooq.co.kr/hls/PM1/1/2000/live.m3u8?Policy=eyJTdGF0ZW1lbnQiOlt7IlJlc291cmNlIjoiaHR0cCo6Ly8qLmNkbi5wb29xLmNvLmtyL2hscy9QTTEvMS8yMDAwLyoiLCJDb25kaXRpb24iOnsiRGF0ZUxlc3NUaGFuIjp7IkFXUzpFcG9jaFRpbWUiOjE1MjczNTM3Mjh9fX1dLCJ0aWQiOiI3MzUwNzQyNzMyOCJ9&Signature=biOaNfMNVxzy87DioF-KFBmnWOged5QPog6ssArBr01beA8rFQS-Rs92q3C2nBrnd~x~XI0e2va49N6zZuM51k~om6rBUWk1C5ueRGxMSp-2JXvVZ1OaVRbeR7cwXHPGkQk1L9sOKeOI6~J91UWxBWjbWsAeXKi1chb5-TgKtF87hgVSzHU44gaeVjdyl2xV0L6BN~y5vKCbqx0v8nyg~MgSTUt0sNS1OFSkb7yU9e9XmUzwaS9JowpEDEKE3mw0qGGtfkcr59mZyg~JXlQnh4-6JCXsA0f9VLCS1Zq~m-pjY~-rDXBjiSin1DG58u1dntgSJ5FzweVhsd9A-f46ng__&Key-Pair-Id=APKAJ6KCI2B6BKBQMD4A
p30
sS'C4001'
p31
Vhttps://live-su.cdn.pooq.co.kr/hls/C4001/1/2000/live.m3u8?Policy=eyJTdGF0ZW1lbnQiOlt7IlJlc291cmNlIjoiaHR0cCo6Ly8qLmNkbi5wb29xLmNvLmtyL2hscy9DNDAwMS8xLzIwMDAvKiIsIkNvbmRpdGlvbiI6eyJEYXRlTGVzc1RoYW4iOnsiQVdTOkVwb2NoVGltZSI6MTUyNzM2NDk3NH19fV0sInRpZCI6IjczNTA3NDI4NTc0In0_&Signature=IH7Ze4oI30CIdREiJxw5x6ewl9r8xnuxltpH21IPvREzZRcQAdrae4Tm0mfE8wFk0mfgbcPw-6IFe1~cTXUtb3-v3Ul9rETN8omo9hCQc~nrnS-MOHBkUxmDMNm63ogyuoz8uphy0sfcdpSAoJwSQcPxkSNfF1kqNxTFIcx1sGnvionCr2H62WSngpjTyh8d5pGtRsS4ayG6xzxNoSqHVRf6BExo5jKMC3KUA9DWoooiezYNuLXUKXo9zn6HhITYgPCPq-O7nipSKUupRaxsYPrcMvYBP0k7kJ1Oi8ReXiCAWoRNblABzNaEGZFPIIjm4GhIG5EiJSW~HlbD19MFYw__&Key-Pair-Id=APKAJ6KCI2B6BKBQMD4A
p32
sS'C5401'
p33
Vhttps://live-su.cdn.pooq.co.kr/hls/C5401/1/2000/live.m3u8?Policy=eyJTdGF0ZW1lbnQiOlt7IlJlc291cmNlIjoiaHR0cCo6Ly8qLmNkbi5wb29xLmNvLmtyL2hscy9DNTQwMS8xLzIwMDAvKiIsIkNvbmRpdGlvbiI6eyJEYXRlTGVzc1RoYW4iOnsiQVdTOkVwb2NoVGltZSI6MTUyNzM2NDE5OX19fV0sInRpZCI6IjczNTA3NDI3Nzk5In0_&Signature=d03~SCN3TLY0qI~vEOHQcMJcysb-LPowzGWCoVJOmROpMuJ~DFNsWcePtFtNs1mqcANpWaC-XE1UHj3Je9rTtXjGbwMXUfh-sC6TKjCJDwKddhyWj5rnrWXMRpdXh-6pQomQKE5NFt5G2w6V8SLHbPGtFNp6SpOUNjrg6hv4CC0puBvwCgy62K1MKBuwezTgZ8MvmEjfjeioovxF8qkOPcFrrjxsFpwGAdo9bfXSxp5O~OwO5w-BAxvZpsMB8~7r-bRLQKcOfcdCgErnsTsvhpnObUl8Ye~MFodQygcuDLrwzHySVYNaA6JsmSWTUdu9-Ls1clEex5VPhf~5TwlWrw__&Key-Pair-Id=APKAJ6KCI2B6BKBQMD4A
p34
sS'D01'
p35
Vhttps://live-su.cdn.pooq.co.kr/hls/D01/1/2000/live.m3u8?Policy=eyJTdGF0ZW1lbnQiOlt7IlJlc291cmNlIjoiaHR0cCo6Ly8qLmNkbi5wb29xLmNvLmtyL2hscy9EMDEvMS8yMDAwLyoiLCJDb25kaXRpb24iOnsiRGF0ZUxlc3NUaGFuIjp7IkFXUzpFcG9jaFRpbWUiOjE1MjczNjQ4MjB9fX1dLCJ0aWQiOiI3MzUwNzQyODQyMCJ9&Signature=OE9LFOu698MAtdnSozP05caU5MZCTIRkad~tzurqjJsMcsdKaL850DsCo407OYg3huc2-t6AakubRowPAZSL7W4PIxGxnd9yaU8AWwVLCdnp-Prk9ff4Q1heR4u8dFnguZwJPRSEsTvI7TvpOA9xA9n-OhUFx7P5sndw3PL1d2IEjA1IGXULEFc9XZzaipR4bEqHBAo0wwvXfTjagza~zOp2qXk~4yv9ylDY9uFUdtaQdMGbBzGKBv8aD6HSWc1li7hz-DbQALIQmFFjgK9rDhuRjD0dyzYTm-MzCRDU~XsPTNDW4OZtAGokiPPYnK9cV8UM41uKDNySv45smzkBcA__&Key-Pair-Id=APKAJ6KCI2B6BKBQMD4A
p36
sS'S13'
p37
Vhttps://live-su.cdn.pooq.co.kr/hls/S13/1/5000/live.m3u8?Policy=eyJTdGF0ZW1lbnQiOlt7IlJlc291cmNlIjoiaHR0cCo6Ly8qLmNkbi5wb29xLmNvLmtyL2hscy9TMTMvMS81MDAwLyoiLCJDb25kaXRpb24iOnsiRGF0ZUxlc3NUaGFuIjp7IkFXUzpFcG9jaFRpbWUiOjE1MjczNjE4ODR9fX1dLCJ0aWQiOiI3MzUwNzQyNTQ4NCJ9&Signature=GXVwsyIavcCrybNSnLzCUVuO6JCWF0D1VZTjOBBjLTWuJ3ip~mZTD1ArExn31jONm4CTPKshWVcRQ3MVISLNh63Uogbh9XEfEcHCKlQegot2LIdQD--qSaieo7qEj8F93yp3SoRBTGeOWK3BpH-qkvtKddndsr~gjIimQJQ2D1i3EDwEeenmIHejpOyx4zNAANT67XvoG1VWjrpxKfACbjs1kuJYC1awEIIzC6hSD9AgJJ35xfM11tIg9ueexKKcYWj~LgXH43pHQeUXLWVAgYV9vh0bC~FdjwAt3fRQ6thBM8E3trxE7OEbCNjlAVfjVDRYi~Y~bWGJTfX8zuJ0Cw__&Key-Pair-Id=APKAJ6KCI2B6BKBQMD4A
p38
sS'S10'
p39
Vhttps://live-su.cdn.pooq.co.kr/hls/S10/1/2000/live.m3u8?Policy=eyJTdGF0ZW1lbnQiOlt7IlJlc291cmNlIjoiaHR0cCo6Ly8qLmNkbi5wb29xLmNvLmtyL2hscy9TMTAvMS8yMDAwLyoiLCJDb25kaXRpb24iOnsiRGF0ZUxlc3NUaGFuIjp7IkFXUzpFcG9jaFRpbWUiOjE1MjczNjIyMTh9fX1dLCJ0aWQiOiI3MzUwNzQyNTgxOCJ9&Signature=DENoiEOIARNCIeHEuD5qk2QBf5uWa7XDsdfYVyFgYExcYOO4SSjnvABxb7FRVS01PIpisGTWXVc0oTbUkof0cegKjyMuaty7dR9BaLwRIrxpuQQiOIwTLYDAu8UgFwa6g0zCt2QRnkEf69k6GXcuVCnQlppi4ZTgitAQ4tjVlTUEHGXx0fJf2O612OVV0opMNNkeBj5AjAFLRWIKd-du7UtQ5CgPQYEwAH~GLG5ZuaxhjQ3~-lSEgRLvwSNJhD9C36PppzU-XWAER6Ftc7QxXxBpXKyuH9-fbN9k1TemdtPI8eO4qwxfZONFWdybxJJzfFqS4ILU8uYdiMA6zALhfw__&Key-Pair-Id=APKAJ6KCI2B6BKBQMD4A
p40
sS'C5501'
p41
Vhttps://live-su.cdn.pooq.co.kr/hls/C5501/1/2000/live.m3u8?Policy=eyJTdGF0ZW1lbnQiOlt7IlJlc291cmNlIjoiaHR0cCo6Ly8qLmNkbi5wb29xLmNvLmtyL2hscy9DNTUwMS8xLzIwMDAvKiIsIkNvbmRpdGlvbiI6eyJEYXRlTGVzc1RoYW4iOnsiQVdTOkVwb2NoVGltZSI6MTUyNzM2MzAxNn19fV0sInRpZCI6IjczNTA3NDI2NjE2In0_&Signature=AqSamptV1jRmDDK3x8NxkEet-YUEEIB5sEGOf2j3A6EYiLMG6R6e-zC-xkSLNomZNcGeHoVmKg~F~FNc0kNz5rGI~Q6LfqXTYCj3YNdfxjXm707Dl4MiiQiadg8LEhoI5S67Ch~7oeJakx4onMFbfMfDmK81F8PLl11Hc3nwVrenW~h6RiKQ0MRsjhD-ms~Um8fqJo7RC2P1tk1Q67V9kBqdR1phymmtYQ9uM8SdOKB59Ng9rVqNn6bRBhVVPxORXhuGRmXeQO7j7XVtMcanEYUHmcDSTHDRxuq46AhDx52xmWOTC-1yM4PEimpqPoUa6ZWZpV75QrNcCQ-FqfkCxQ__&Key-Pair-Id=APKAJ6KCI2B6BKBQMD4A
p42
sVC2304
p43
Vhttps://live-su.cdn.pooq.co.kr/hls/C2304/1/2000/live.m3u8?Policy=eyJTdGF0ZW1lbnQiOlt7IlJlc291cmNlIjoiaHR0cCo6Ly8qLmNkbi5wb29xLmNvLmtyL2hscy9DMjMwNC8xLzIwMDAvKiIsIkNvbmRpdGlvbiI6eyJEYXRlTGVzc1RoYW4iOnsiQVdTOkVwb2NoVGltZSI6MTUyNzM5NzkzOX19fV0sInRpZCI6IjczNTA3NDIxNTM5In0_&Signature=FxttdxGbdqnM67-3TRYkiRBe2YjeRB5t~bDO12tMm3obbt6IRYF8y2VvLtbzjloqDb5rBpuVVOelE44o4mZ8nnF3w9r3C-VUk9h0cjSlMhHHaW66fyZfJ8LFdtCkE5i1lElksS4RIz1zALsK2P55a6FJ08WmXTyAlWU9WRUjrFOOnpKDbMzQG6uvv8wNKtXA0lEeNmorPDEiqOfAv6d13OwC-EVE-iKeAaYXg38liel-8AwxWhIJgxrHM0RLmW--aiTzH-DZ3LB2PLxzHhzc1BPqzdTc9Gl06yJY~7Czqt8CqbKyXLSLsWgyObGNmX5zXe3DrgVt5joG8wgoAYvEFQ__&Key-Pair-Id=APKAJ6KCI2B6BKBQMD4A
p44
sS'M06'
p45
Vhttps://live-su.cdn.pooq.co.kr/hls/M06/1/2000/live.m3u8?Policy=eyJTdGF0ZW1lbnQiOlt7IlJlc291cmNlIjoiaHR0cCo6Ly8qLmNkbi5wb29xLmNvLmtyL2hscy9NMDYvMS8yMDAwLyoiLCJDb25kaXRpb24iOnsiRGF0ZUxlc3NUaGFuIjp7IkFXUzpFcG9jaFRpbWUiOjE1MjczNjI5NDZ9fX1dLCJ0aWQiOiI3MzUwNzQyNjU0NiJ9&Signature=UVheJHjwP9Uyo6gm-xYDg-qTOQpPd6fi00gNcv9RQTJbL9qALnNAeIDMRu7qzsJJtHF27pZ~6afZQVXbwRK1l~r0nbVx5ic7l2n4oJ4kZY0jtamK5MWVIgeZg9uwgHvj7DOeswLVtNGLEJSc~zqrteQnQwiDOosrQew9DCoYDx3ljEF4aU-kIdoXdghSBSDDGdwPH1hTGFF8eorQsZ1Ctbkp7VZ6oDGDv~613tVUONoqkNg5XhYga8v-M-PerwuRYnCQzRgh5vUUuWp-RupInjJvMW7o6yo8-duR2d8N5t68MYCjfaH0RSXbUyqLC2BwHDPWR4UcrgTc~BV99nVihg__&Key-Pair-Id=APKAJ6KCI2B6BKBQMD4A
p46
sS'M07'
p47
Vhttps://live-su.cdn.pooq.co.kr/hls/M07/1/100/radio.m3u8?Policy=eyJTdGF0ZW1lbnQiOlt7IlJlc291cmNlIjoiaHR0cCo6Ly8qLmNkbi5wb29xLmNvLmtyL2hscy9NMDcvMS8xMDAvKiIsIkNvbmRpdGlvbiI6eyJEYXRlTGVzc1RoYW4iOnsiQVdTOkVwb2NoVGltZSI6MTUyNzM5ODMzNH19fV0sInRpZCI6IjczNTA3NDIxOTM0In0_&Signature=ZFrEXEuAhDixRbEvTTOPJyaeju73-huwYrEKNbdaUzTObHiSDil2EOsDv8auIyKmA1eORRsfwa17amT4LqiNsYWKfQe-UiGtVVrtJCH8iiKuEKmZ9xVyeA3aCLo3PhmgVbZhmfubCDcVBKuTD3NoGk4lws-2ruoBlMf3qYurREDDucbHRVjWqBWmQkX~QvMgQo291wDjeth6Q1e4drZz0Q8-Pq6Dnp3wzcXRaA9AnyUd2Lq7kD7lSwjeECqgpeYQDQVq4G3qwT4SYKnh~dIFyG41x4PmIWHkPryl--WN3gnz8AsndGQ94M8xHm3Q0U7kUy8PJQGWjTwUgRwuZdXwng__&Key-Pair-Id=APKAJ6KCI2B6BKBQMD4A
p48
sS'M02'
p49
Vhttps://live-su.cdn.pooq.co.kr/hls/M02/1/2000/live.m3u8?Policy=eyJTdGF0ZW1lbnQiOlt7IlJlc291cmNlIjoiaHR0cCo6Ly8qLmNkbi5wb29xLmNvLmtyL2hscy9NMDIvMS8yMDAwLyoiLCJDb25kaXRpb24iOnsiRGF0ZUxlc3NUaGFuIjp7IkFXUzpFcG9jaFRpbWUiOjE1MjczODM2NDJ9fX1dLCJ0aWQiOiI3MzUwNzQyNzI0MiJ9&Signature=jITk6fT2LjBuqJ5PobJ2gwHsDx5dS1UDuVuMXmDXY9YIgqC7mPrIjWO8Pg8ws5pDei7bTBBLwNM6HYZKFnDI5wGMdrlgysR36qJCR7NPXmG~kL9ok12U9SuVa1~ANeZyvPHfL6Bj3psLtP3Y9lGf0PaXLjRUQ~kdh60ehOyUQLQkLgwWUktrwxS4oytvNjds3XbCmhQPw7ENmFpitwney2YyUaOt9jQh9xgz8PdWcIIyy1Q-GBBRUB7uyEm2n9abNeNkeJhpLmwBKX-Emz2hGPSy10KfY47J7Knp~mJaFFmy8lg5iut6FEnjKhQ1Et2OED~YUDyhtwbtoIS4nHwKAA__&Key-Pair-Id=APKAJ6KCI2B6BKBQMD4A
p50
sS'M03'
p51
Vhttps://live-su.cdn.pooq.co.kr/hls/M03/1/2000/live.m3u8?Policy=eyJTdGF0ZW1lbnQiOlt7IlJlc291cmNlIjoiaHR0cCo6Ly8qLmNkbi5wb29xLmNvLmtyL2hscy9NMDMvMS8yMDAwLyoiLCJDb25kaXRpb24iOnsiRGF0ZUxlc3NUaGFuIjp7IkFXUzpFcG9jaFRpbWUiOjE1MjczODM2NjV9fX1dLCJ0aWQiOiI3MzUwNzQyNzI2NSJ9&Signature=UxLGTrR5UjTYWmUmoaM9hGNKnYFcynId4xrs36~CBMQ4DeONbaMJfeOYi35mp1yZDhiTOJz5~2wTOT4Bv-MeMx1y4LzkpppSJRyn0TxUrXPIrjFN5mZ3fQcmgYtZGxM081JQ9jMsmOiqWPWWnofEKZbXjolCE4u4kyxydOhj2mWwnOIev2u7k1MeU4wUvIMfAqplCy5533n7zj5YtQod~fIoaotCPflU86g1~ERcAUgoD-xLUDqyRFlH9dDFfAkpZ-MxbUowzCRfs4Ade9NNkjqMwV78WjKhj3d92EIzdH0MzDjQ5Yj0d2DGmDWPBXVxrVRx1F9f8PyZhxcsjXHmSw__&Key-Pair-Id=APKAJ6KCI2B6BKBQMD4A
p52
sS'M01'
p53
Vhttps://live-su.cdn.pooq.co.kr/hls/M01/1/5000/live.m3u8?Policy=eyJTdGF0ZW1lbnQiOlt7IlJlc291cmNlIjoiaHR0cCo6Ly8qLmNkbi5wb29xLmNvLmtyL2hscy9NMDEvMS81MDAwLyoiLCJDb25kaXRpb24iOnsiRGF0ZUxlc3NUaGFuIjp7IkFXUzpFcG9jaFRpbWUiOjE1MjczNTM1Nzl9fX1dLCJ0aWQiOiI3MzUwNzQyNzE3OSJ9&Signature=QKS1h42TrMAKNDe01Pr9hl0K52Qd8tT2vH8G6qxU-1~91OmRagTWsrnJ8YNgD8ycaCJ~f0oEweKkiH6v1beJnGA2wVoBgZeiOlyBmkfsmKOXL6ivOF9rbaiWnIcd7ar0V3TEZUj-WD4KT~O8yuafhHgp~-8Kd9TsNKAYOGtVzRf2P5457DeM7JwSXiY4GBvCBxh~0kna0HU1u3cVyTI4qDdrBeHGoGR2wP7fzi10H92erUicq7gupXCY~~MrKnN-1Ypqw7MdoQSU3rcQbCztDtiKUHgAmw4szQ1ncj8hiv1J3I89A-XK2KA5UeHFbf61VTsl2~VFO0D8tooDXI9NzQ__&Key-Pair-Id=APKAJ6KCI2B6BKBQMD4A
p54
sS'C4901'
p55
Vhttps://live-su.cdn.pooq.co.kr/hls/C4901/1/2000/live.m3u8?Policy=eyJTdGF0ZW1lbnQiOlt7IlJlc291cmNlIjoiaHR0cCo6Ly8qLmNkbi5wb29xLmNvLmtyL2hscy9DNDkwMS8xLzIwMDAvKiIsIkNvbmRpdGlvbiI6eyJEYXRlTGVzc1RoYW4iOnsiQVdTOkVwb2NoVGltZSI6MTUyNzQxNzM1Nn19fV0sInRpZCI6IjczNTA3NDIwOTU2In0_&Signature=OzqaMJs1YdHZcaDKOEaekA6tNpfR-ep7VTRnDW2T~eAg3Fna6ebsuvJJXA4SwO5JJ0IUizOJ~1SWjBtkr8zEGymQ802EIrGHeR~DdVDNzwXGO08vHG7lt04jfQiQq~i6dDcu5wGQFyOzVinoR94Vyv6P3OGOFYqe9VyFpVygqeY61J1bD5roomhzOtfdIy7NcoLWs4gndOLDfCx60L1g2AW8g5h3zkGUd8TBModkv71naELP3PaUJJ1lZ0OrqwxdqkAujkaXKzOMpK7simf3XdrhVUJLa3LyOF7fsKSfhEAnYXRU~Q4cZZ7lfc45C5pbHqWzZJzWdr3w2P~DJkQ1eA__&Key-Pair-Id=APKAJ6KCI2B6BKBQMD4A
p56
sS'C4401'
p57
Vhttps://live-su.cdn.pooq.co.kr/hls/C4401/1/2000/live.m3u8?Policy=eyJTdGF0ZW1lbnQiOlt7IlJlc291cmNlIjoiaHR0cCo6Ly8qLmNkbi5wb29xLmNvLmtyL2hscy9DNDQwMS8xLzIwMDAvKiIsIkNvbmRpdGlvbiI6eyJEYXRlTGVzc1RoYW4iOnsiQVdTOkVwb2NoVGltZSI6MTUyNzM5NzUxM319fV0sInRpZCI6IjczNTA3NDIxMTEzIn0_&Signature=U2PCtkFU2fWcBfeeok5br4qDUzQF49~qCjheUdfSLkglV8PLxbLq4VmbNDAhrnPe4rEj0NQ9-hv7~KD47RT9VEybqOpUMqYY~T9fRUVAv5wVse~cgH5ygv39Lz6bTr1BJLbSO4dFTnKv6yuNqCcF7cFR3fHuNOp46rqHwl~GErp~p91h4NW23g86wKV7LYV2tWZwfnqNX1sQFZgCsI78zA5cUILtma5uK-LpBx0CW5qiuaezWyBrcLDOH0Bfs0sdxeIXZntQV1RYlbDxjfwdPeCBOplwELa2vTK1wdT3gaE9jptHOu2d~nyd4ZkAsCgPuDvECRwUNMH0wPqmnRfwiQ__&Key-Pair-Id=APKAJ6KCI2B6BKBQMD4A
p58
sS'M08'
p59
Vhttps://live-su.cdn.pooq.co.kr/hls/M08/1/100/radio.m3u8?Policy=eyJTdGF0ZW1lbnQiOlt7IlJlc291cmNlIjoiaHR0cCo6Ly8qLmNkbi5wb29xLmNvLmtyL2hscy9NMDgvMS8xMDAvKiIsIkNvbmRpdGlvbiI6eyJEYXRlTGVzc1RoYW4iOnsiQVdTOkVwb2NoVGltZSI6MTUyNzM2NTY1OH19fV0sInRpZCI6IjczNTA3NDI5MjU4In0_&Signature=DsWhPKeVukfbju8PnGtVGwhjO1QsivEe800PRYrKky8JiAZnbQJkZF07OxvVQdR9KDbYFHWgjAypsoK~qhJkuiuYTjSHEHkuHdEQVWHE4V~U0h7ziSmbCZYkNFQcFKxpJpgO4~POc4jq6zNBiHvi49accA7eKrJFWjlMz7mmtTQ1wjJGcj2k0UKSiMEt6bqC1oOzKoC23J13oINAtsrUzG2VROOFCraDYITS6ETI7PbLwr7oM8LQA8VBMLCyrAwf4Kb5Z33k~Ab~tk7Ssc8DlD2XrrLGz4oO0M3VlTsshL9Q6FQ4HzqWLW1LK6ckSADFiNN5j8ECbbVmeYUtRKWpAQ__&Key-Pair-Id=APKAJ6KCI2B6BKBQMD4A
p60
sS'C3901'
p61
Vhttps://live-su.cdn.pooq.co.kr/hls/C3901/1/2000/live.m3u8?Policy=eyJTdGF0ZW1lbnQiOlt7IlJlc291cmNlIjoiaHR0cCo6Ly8qLmNkbi5wb29xLmNvLmtyL2hscy9DMzkwMS8xLzIwMDAvKiIsIkNvbmRpdGlvbiI6eyJEYXRlTGVzc1RoYW4iOnsiQVdTOkVwb2NoVGltZSI6MTUyNzM5ODU1Mn19fV0sInRpZCI6IjczNTA3NDIyMTUyIn0_&Signature=Yqa3S6mCivDZt979u8idSzmm87-X5pi9DsJsZGqUy-VSz2GbBOzQk1v-Jsm4n6hIKV6Y0Ey5NBmufwZerNfjcXCZseMuQcGy96G0trb0LuVfNWYWtTTsEN9i8JhGzYWJQPhF3HJljBMJ4WlEDKQukhw6edOyHZOyYcY4FuZKuz18FXd9OinMo14tgDjMawauOTBIxuCocbbWpwIqjpKdy9BINvg8ZaItUCpYmcHD0dRmwfliDZkt1H-TLjyACh~mEkc9PxhPJOBLG-lARncSMEkwKicpafrl51LuRffswYOJqGWefP39KzUrnfzeh8YsI0qOSeTnZSg-6OEmNztAWQ__&Key-Pair-Id=APKAJ6KCI2B6BKBQMD4A
p62
sS'C2501'
p63
Vhttps://live-su.cdn.pooq.co.kr/hls/C2501/1/2000/live.m3u8?Policy=eyJTdGF0ZW1lbnQiOlt7IlJlc291cmNlIjoiaHR0cCo6Ly8qLmNkbi5wb29xLmNvLmtyL2hscy9DMjUwMS8xLzIwMDAvKiIsIkNvbmRpdGlvbiI6eyJEYXRlTGVzc1RoYW4iOnsiQVdTOkVwb2NoVGltZSI6MTUyNzM2NDIzMX19fV0sInRpZCI6IjczNTA3NDI3ODMxIn0_&Signature=QSELw5nq3XfEZNbykcWVMO7h8lQs~3kFxTQp1Q8CVCwaxRHqgyRsiVpV1DuHF3Q4taQOE8uX6YAlz8eV46Hxx1gMmZ2BDMKyl99RuTuWuGj1cT-M~mhgjgsXKjvqeo-9DPCvGFnzBrpsH7Vnb9OJdstw1ZgGfL-mglfQYTC8-OwhT6VjtJxFkZhkyvQtKypXKnOjh8aAWWHieIfd2kT1f~alkMRlkMrLP82Lqoh0CXMzVlNqlnMTIj3QW50hJf~7fPBCaaILBMaY-YOJ54idaAxZMx7lsWIJJYEEudoeZDbWATzNJ2m4ISP7jOen8~h2lqJQAXL8dkpfuwsTV~EP~w__&Key-Pair-Id=APKAJ6KCI2B6BKBQMD4A
p64
sS'K01'
p65
Vhttps://live-su.cdn.pooq.co.kr/hls/K01/1/5000/live.m3u8?Policy=eyJTdGF0ZW1lbnQiOlt7IlJlc291cmNlIjoiaHR0cCo6Ly8qLmNkbi5wb29xLmNvLmtyL2hscy9LMDEvMS81MDAwLyoiLCJDb25kaXRpb24iOnsiRGF0ZUxlc3NUaGFuIjp7IkFXUzpFcG9jaFRpbWUiOjE1Mjc0MTkxNzZ9fX1dLCJ0aWQiOiI3MzUwNzQyMjc3NiJ9&Signature=bA35Cy3s8tlt-~1m-7douZvYEjAiCH4kbtqMg-ZFK9qzDPFS15dVrgqq3lLX~-MxzGO9bl~VgPhfKCRsJVWCZmK13sZWr2Jv065Nc6ovOJwBu8Eog1IMAlHPbMRBtgIUmGuLC65itzrMFHadgRdJsAsXN4emD-YSz5a43xO8Biaa9Sg~bAJ2Jbe45emTDZXSoriDr46895bXFRAU4onuSoE45b2p5HecKQGptOP~rOLqCemGY3LoeQrBemUlmaM1WXgMHmMtQyw9nypzmEmitiQqBxKRoYDoEp6Ydxi0ewRYsH3jMf9Iwqfu3y-YT2Vm6gojF5LsnbwVDkRxbkaW5A__&Key-Pair-Id=APKAJ6KCI2B6BKBQMD4A
p66
sS'K02'
p67
Vhttps://live-su.cdn.pooq.co.kr/hls/K02/1/5000/live.m3u8?Policy=eyJTdGF0ZW1lbnQiOlt7IlJlc291cmNlIjoiaHR0cCo6Ly8qLmNkbi5wb29xLmNvLmtyL2hscy9LMDIvMS81MDAwLyoiLCJDb25kaXRpb24iOnsiRGF0ZUxlc3NUaGFuIjp7IkFXUzpFcG9jaFRpbWUiOjE1MjczOTc1ODV9fX1dLCJ0aWQiOiI3MzUwNzQyMTE4NSJ9&Signature=NoypEPEawF9Hs1Bp-BIcozHI2FdUjWwLj-bHBt~RAyiPxcbqvN9Ak5rFEgNB9Jq7DqJq7kNODniW3eTUjkhm6B8wOQsYXBKVhyKFVl-ickauPwSs6WeEuCsKwGR7-AMe9tVnNwLBNJQswyWhai-dYKBecMD2xKDprSoFQEjD-Ov0PrNRtnbPesq3w7xaILXxGmf~yxh1S-CChfrBR5z~AeEH0rd0m0OHEx1k~L5UoDb1pgvgMtjnlc-qrNQNwRsLR~p0WCjNJrguhXNEQ7lHKU9lk-T7qGWZY9JVMGWIhCF-tDc8XgE1w0ffIZABNiugZVs33JFegFpys5byqnBXDw__&Key-Pair-Id=APKAJ6KCI2B6BKBQMD4A
p68
sS'K04'
p69
Vhttps://live-su.cdn.pooq.co.kr/hls/K04/1/2000/live.m3u8?Policy=eyJTdGF0ZW1lbnQiOlt7IlJlc291cmNlIjoiaHR0cCo6Ly8qLmNkbi5wb29xLmNvLmtyL2hscy9LMDQvMS8yMDAwLyoiLCJDb25kaXRpb24iOnsiRGF0ZUxlc3NUaGFuIjp7IkFXUzpFcG9jaFRpbWUiOjE1MjczNTAxNTl9fX1dLCJ0aWQiOiI3MzUwNzQyMzc1OSJ9&Signature=exNlYsoMENzqaahOjUThY8TDjcYv1F0ArC01CeNgnnmasrPf7N14YbQwH5zSt8-pFzywsWyFH73hErZ8uGDy2ywcYEK2bO36Y-d5IH9Kl8ZxtwbWX9FNyzOQsrOqWOOShy78MuvPt-qgyrHLsczbzJK6A~G6uXc7Kfk~fP4RCmNnQshnkm8jCynIPEkJZS-34Kn9j-ACe5DCrYhN4j1FKL8OqntVvpPjYSF-RnB6DqOuPVofhDBPylguBFFYDaYL150QpzoLR0cHsQTwOcpI3bL-HUbTMyAPURN7icbtBGGUeoeBmwaF~LQ1yOxKGTn8DNTOeUqsbGo~Bj1rbjgq0A__&Key-Pair-Id=APKAJ6KCI2B6BKBQMD4A
p70
sS'K05'
p71
Vhttps://live-su.cdn.pooq.co.kr/hls/K05/1/2000/live.m3u8?Policy=eyJTdGF0ZW1lbnQiOlt7IlJlc291cmNlIjoiaHR0cCo6Ly8qLmNkbi5wb29xLmNvLmtyL2hscy9LMDUvMS8yMDAwLyoiLCJDb25kaXRpb24iOnsiRGF0ZUxlc3NUaGFuIjp7IkFXUzpFcG9jaFRpbWUiOjE1Mjc0MTM5MzF9fX1dLCJ0aWQiOiI3MzUwNzQyNzUzMSJ9&Signature=Rn0zI-zTo~UJetl1yOCNimS3sfttmz9g6H3GBhCs7cLxRLTCI~Zs8pzHu~wX-cChQB91ozqjeoESjW-95ydTCnv42s~1ZIWMLHkc2mPvgiM6RJ92FtTopIVHq5TGVadJJQJejt1jHGmTDWqOJvzJX~tovVnA3kbn53TVoqkRv6CcwLUfgp61g5rmQVzvZsfRHlJc0k8nsMI-EtumK~q9c73RdXIflhfIKJGcLJP0QrEjqSd-fRp7iqwrfqWhtZB8tDqgTRHarn4F7EK9GPBN4UVrEp1IK9PYdxsUk3Zjnc5IrraOCgYsEaJRsga2A9oHtP1xwIDe0B6qlQQ9tPi-lw__&Key-Pair-Id=APKAJ6KCI2B6BKBQMD4A
p72
sS'K06'
p73
Vhttps://live-su.cdn.pooq.co.kr/hls/K06/1/2000/live.m3u8?Policy=eyJTdGF0ZW1lbnQiOlt7IlJlc291cmNlIjoiaHR0cCo6Ly8qLmNkbi5wb29xLmNvLmtyL2hscy9LMDYvMS8yMDAwLyoiLCJDb25kaXRpb24iOnsiRGF0ZUxlc3NUaGFuIjp7IkFXUzpFcG9jaFRpbWUiOjE1MjczNjU5Mzh9fX1dLCJ0aWQiOiI3MzUwNzQyOTUzOCJ9&Signature=FIMFqRgZWRGUegfQ6EuOvaEd41qI7-UiIFCjIPe0fwyum6uNW0L6-9ki0zcHkAEdRNW8grWGgQ9lKDpXk9otKdvhHK3sMI8UtUEaDF7VUTJ6CoKLO0iy6zds7u6zyCJpIjibBnaIEEOZchnyQZH7W7GN2otJDEezxViB9FZk36KzdyBWs9Df0UjTFuiUu0UsxKvcumGc~3~xIu6JCKPcnDoKFKHYqHsY4WhI3oZR8Oun~RwBB6b6WnlK~omYCA9apOnSE3mW4iUe7b7u48n8ssgT~jfGlQRplKE5i21kIO-FA0NaXQcGqPcbKUVGu0I88DEeEXNy1hrTsDQuwfOcbg__&Key-Pair-Id=APKAJ6KCI2B6BKBQMD4A
p74
sVK07
p75
Vhttps://live-su.cdn.pooq.co.kr/hls/K07/1/100/radio.m3u8?Policy=eyJTdGF0ZW1lbnQiOlt7IlJlc291cmNlIjoiaHR0cCo6Ly8qLmNkbi5wb29xLmNvLmtyL2hscy9LMDcvMS8xMDAvKiIsIkNvbmRpdGlvbiI6eyJEYXRlTGVzc1RoYW4iOnsiQVdTOkVwb2NoVGltZSI6MTUyNzQxMzkxNX19fV0sInRpZCI6IjczNTA3NDI3NTE1In0_&Signature=LPS6PHSiBDGcaNaeEzO4kMsqwC-lBp5mc0E2UnQm5iYjEsRMQS3s5HeRC-v~3s8wsbnBMfSNM9FrYBU9GtW6Xgo~RUTBvmc7g~DGK9dJkuxZzZJcdb3hFDcvg3utKPcrIPqT9JkMju~BYe~dFwQeBzHoQOcx5~8S1~HUjgqQI1GivtHSqFetJxDm3~lrdCrWLxLX3fd-0cGWrSjvhBhWEEb5544sDd3wLKNLWHbTPpXqxvLkpd6nmbIX-NGv67CV1vGhxyWJsx7rm4hozEDgxohscQELmq1PK3odagv-Dr735g0XG--S4FqOGjH9iolk961Jc1YXRpZGOJ4Ena4xNg__&Key-Pair-Id=APKAJ6KCI2B6BKBQMD4A
p76
sS'E06'
p77
Vhttps://live-su.cdn.pooq.co.kr/hls/E06/1/100/radio.m3u8?Policy=eyJTdGF0ZW1lbnQiOlt7IlJlc291cmNlIjoiaHR0cCo6Ly8qLmNkbi5wb29xLmNvLmtyL2hscy9FMDYvMS8xMDAvKiIsIkNvbmRpdGlvbiI6eyJEYXRlTGVzc1RoYW4iOnsiQVdTOkVwb2NoVGltZSI6MTUyNzM4MzU4N319fV0sInRpZCI6IjczNTA3NDI3MTg3In0_&Signature=PEqiyTypQofXHU3jyQGayygGFelx~wuz~s66DBLA7352zlbpjJZ8YXXJOVyrVzUXHWml-8OeIokRm0Qq-9dukBN1kELVcrfupvF2V6ZdInGHz~ZUBrU2uLCJ39XqQ2LcKfZLqKJ3Si1SLsdrEQQ~Lx-YNH~Rgp5C2kAEl-MF6Ov650SQ0zXa096J-~X~Rm8yw0odT61EKgANoNgVM~UM4booAM4GV3mXJvX0p-qm8Hayzrkq~msIeAsCsf3HN4okX3LUd1x-HPEIM78y67b-QcN6tbQhkTcTZUzu8v1zsktVw1a4V8eKv6hYbYzVOHdLWq8ax65LPT97fsTr25nHVg__&Key-Pair-Id=APKAJ6KCI2B6BKBQMD4A
p78
sS'C4201'
p79
Vhttps://live-su.cdn.pooq.co.kr/hls/C4201/1/2000/live.m3u8?Policy=eyJTdGF0ZW1lbnQiOlt7IlJlc291cmNlIjoiaHR0cCo6Ly8qLmNkbi5wb29xLmNvLmtyL2hscy9DNDIwMS8xLzIwMDAvKiIsIkNvbmRpdGlvbiI6eyJEYXRlTGVzc1RoYW4iOnsiQVdTOkVwb2NoVGltZSI6MTUyNzQxNzMzN319fV0sInRpZCI6IjczNTA3NDIwOTM3In0_&Signature=B6uUcRNxYFZRsu31iaPmmvYto77JQNtVzN8s-GuTQlTP5qBM1jLBGN7hC4~vyoTWuRg55j~jHj2KSI6GRErSGnlVvnm-MaQ-UNAjS0ToUZjYkmDBMTTcz7jmczlVu46QSCcrcmJkaZOmV~mRE55XSBg9pQzp6F-Q8PttopNi2eOuB0Ukr1mjBXcpGin6u0tNpUHAa7~UOG6N6nNhJvcbsH4mnpDph9elwDfUiV0JMhqxDxLUe7zCNpskhQXosoV16ZZqXS63A3N8vmJcMhOtg-gAt6-IE2TCiQGsgXkFul-zzdc77WEtnUOqkQjBA-2cNeJvXAudWZCGkEqIKM3VpA__&Key-Pair-Id=APKAJ6KCI2B6BKBQMD4A
p80
sS'C4202'
p81
Vhttps://live-su.cdn.pooq.co.kr/hls/C4202/1/2000/live.m3u8?Policy=eyJTdGF0ZW1lbnQiOlt7IlJlc291cmNlIjoiaHR0cCo6Ly8qLmNkbi5wb29xLmNvLmtyL2hscy9DNDIwMi8xLzIwMDAvKiIsIkNvbmRpdGlvbiI6eyJEYXRlTGVzc1RoYW4iOnsiQVdTOkVwb2NoVGltZSI6MTUyNzM2MzE0MH19fV0sInRpZCI6IjczNTA3NDI2NzQwIn0_&Signature=jr02Q0pTpFVZsiC9K2JhZpAzX1w-VtyP-AlA0R7ExxntOmGYAYVF-xqVlVHEz4dlmHUi~JpDr~EyABOfv7vduPtcg1TfkL2dRSJ0VmXZQnnY~lIN7h4~Y6stjoCFQ8ZdGOXdyRPqJue9qnhbvK5ax-aoBHDpkEyznZLXOB7937tF~z~1fD7yjz1On~2l5t9Jxgz8fF-p3gpS~1R3MoErgOPj~LpB-cIn1nRNV2Vk5F9Q5B~8thH2-jV2aXzvJT4RetGI2pBAlppWEZFNlbR7eFYf~laiez9I2gI2ebvx-4HSZW36tyxUBjn2QuD0N3Jwc84SP6qrB2HNaibJ4cp8QA__&Key-Pair-Id=APKAJ6KCI2B6BKBQMD4A
p82
sS'E05'
p83
Vhttps://live-su.cdn.pooq.co.kr/hls/E05/1/2000/live.m3u8?Policy=eyJTdGF0ZW1lbnQiOlt7IlJlc291cmNlIjoiaHR0cCo6Ly8qLmNkbi5wb29xLmNvLmtyL2hscy9FMDUvMS8yMDAwLyoiLCJDb25kaXRpb24iOnsiRGF0ZUxlc3NUaGFuIjp7IkFXUzpFcG9jaFRpbWUiOjE1MjczOTg0MDZ9fX1dLCJ0aWQiOiI3MzUwNzQyMjAwNiJ9&Signature=agdIdx4ut8o4Sf~Z6INeMJFb4UaHGFrNzDxXtwDDlUM4KBpdZ5M6Q4DtTzH7xLAafWTW01ezpb4~ye~qRKNdkRLUtFQ3UzAASMPoii-BBtMgBSmT5eN0SZ2kPkPbiUKxWWvTSS~VUM-f~R07RWJTL6xnBQmPftpHl78H-PG-Ic66TRM7HffIvPfVr9Ewh804IA-wLwICXryBFq7MZ-lPvC8VO3elgwMTpkStVG4AB2E0Gnu9WPm10pyEWZ4Az3a4ORZbf7ionWdPSAMMz6LU9F8vzq1FeV7a09zugq5Qttn2SHPYchqSi54g~uqJ3GXgZEINCcbfqWTVu2rEQgcgbw__&Key-Pair-Id=APKAJ6KCI2B6BKBQMD4A
p84
sS'K09'
p85
Vhttps://live-su.cdn.pooq.co.kr/hls/K09/1/2000/live.m3u8?Policy=eyJTdGF0ZW1lbnQiOlt7IlJlc291cmNlIjoiaHR0cCo6Ly8qLmNkbi5wb29xLmNvLmtyL2hscy9LMDkvMS8yMDAwLyoiLCJDb25kaXRpb24iOnsiRGF0ZUxlc3NUaGFuIjp7IkFXUzpFcG9jaFRpbWUiOjE1Mjc0MTM5NTZ9fX1dLCJ0aWQiOiI3MzUwNzQyNzU1NiJ9&Signature=eX7~m8MpTw4M0rKns2NFAvMJ7gNHgS6mlRmdI4xUUYc1aSy37BLerXty-JzvynLko5N~9F94eH7NS5A-iFvNl11xIuVZaVQNOKfRai0u18AaErJFMhHMGasrmrmEexnDyN2HQfNKH-kzTMUym66p9mwxsk0ve4VQDzirjiCAAqFYWqsrmGznqb4QI~F-Q3VDuiXXFt0X9p2Jzq3QbSm6ap-gd538SxNPEJ8aXNwByxMPdcbV2iFcIDcf4S6leXgTCJO9fGq0~J3jNbuBrJF-5w5SWGtRX9k8s65qQlIUiSu6sstfEasJTvRdXRmT3i6qsdJehf~-SR7guRe8CqgDoQ__&Key-Pair-Id=APKAJ6KCI2B6BKBQMD4A
p86
sS'E01'
p87
Vhttps://live-su.cdn.pooq.co.kr/hls/E01/1/5000/live.m3u8?Policy=eyJTdGF0ZW1lbnQiOlt7IlJlc291cmNlIjoiaHR0cCo6Ly8qLmNkbi5wb29xLmNvLmtyL2hscy9FMDEvMS81MDAwLyoiLCJDb25kaXRpb24iOnsiRGF0ZUxlc3NUaGFuIjp7IkFXUzpFcG9jaFRpbWUiOjE1Mjc0MTM4Njl9fX1dLCJ0aWQiOiI3MzUwNzQyNzQ2OSJ9&Signature=jo~Bn8elt0teHHnIleYy990Ef2BEyuoJ335L3zc519-rbPgCmhPUlmebVkBqD1T4~RUbPD8WNbpM-mgBiQzWuGSQ8Y9T5SY8IDegMasdSTf-C3zgcJvjZ72-llelxSJ2IINl9SaNULZyBWIFFwzflOBmaEPPiqfXp1MZMb6BPMNXsjZRc3gjT0nE8B5c46gSLF1J-ZGLC3FSSYwq2sMTz73llv8Q86mV4-wgP4EtPx-37RP1dsIDgLnOKtLsE~ceCCqwG~tv~Ybtvu5ZR6uJxyhmwqnUWzg33qmerDN4PtR6GX5L7CrB5DdZa3lH26Y4o6LbxeCv96SoThKWYk9dcQ__&Key-Pair-Id=APKAJ6KCI2B6BKBQMD4A
p88
sVC4801
p89
Vhttps://live-su.cdn.pooq.co.kr/hls/C4801/1/2000/live.m3u8?Policy=eyJTdGF0ZW1lbnQiOlt7IlJlc291cmNlIjoiaHR0cCo6Ly8qLmNkbi5wb29xLmNvLmtyL2hscy9DNDgwMS8xLzIwMDAvKiIsIkNvbmRpdGlvbiI6eyJEYXRlTGVzc1RoYW4iOnsiQVdTOkVwb2NoVGltZSI6MTUyNzM5NzkxMX19fV0sInRpZCI6IjczNTA3NDIxNTExIn0_&Signature=W1862YYg7hNC9xMeFyGShLu-b8S6mKdtxZ9tZRiC4SRHKXbpa3Yxyyp59pmUqg2AHALIb6Ga2HwzQkURyCHSgMienaf2Ki8YgPpdrsFJLcd-J2P2Q9iwb5-UcK8tJHYajV24MQZlB3eXVALHnJL5cENsZHswj12hejaCQEP-ewDnWK9dnZc8XNrFbCwSlGgPrEYkATUGsXDUVd-z80e-E7J~VpdfN92bwNqQ1SfCsNYbdyaCb7cMeskAtPijtUO3QPzOF-lKzqoRxxH7ET5rtlIjY3SzAac8smoztST6FVfAnwvc8UQSDSCS0-gOkRLJy6VBqEvyrH2pyN5E9Mr5lA__&Key-Pair-Id=APKAJ6KCI2B6BKBQMD4A
p90
sS'PM2'
p91
Vhttps://live-su.cdn.pooq.co.kr/hls/PM2/1/2000/live.m3u8?Policy=eyJTdGF0ZW1lbnQiOlt7IlJlc291cmNlIjoiaHR0cCo6Ly8qLmNkbi5wb29xLmNvLmtyL2hscy9QTTIvMS8yMDAwLyoiLCJDb25kaXRpb24iOnsiRGF0ZUxlc3NUaGFuIjp7IkFXUzpFcG9jaFRpbWUiOjE1MjczNjQwOTh9fX1dLCJ0aWQiOiI3MzUwNzQyNzY5OCJ9&Signature=VyyS9ghhvBCZpVmC4oM0Edc-cLkAENFOe-MJITbiE9ih9cg5edFtfzr5-A3Pl~dUtPQIgiyIVavfTiboa6UFqusVYPdVzgJs0c2xoNPA~p-tDKwUI9HRQ~NyBfJjProPmSQuTyvS3TL-iDvzizHRT-vkKbIB5v3qjchjv1FJj-6OQ~6Q39zPl9p4dB9oUSQdtz~4zI8FDSVbWTA-PsG0dGNwlrBCQq9Rjj9FCtU2WaPvYGyZR5aSmk~O9WUBODB9MCRMBtwjxh31nTA8t7FD3JMm6gFCKB43oyz6CTzpM2m48SR-R2AsYz~6OO3cKl5GDyyxrly3pklb7zMDXx8U-g__&Key-Pair-Id=APKAJ6KCI2B6BKBQMD4A
p92
sS'C2302'
p93
Vhttps://live-su.cdn.pooq.co.kr/hls/C2302/1/2000/live.m3u8?Policy=eyJTdGF0ZW1lbnQiOlt7IlJlc291cmNlIjoiaHR0cCo6Ly8qLmNkbi5wb29xLmNvLmtyL2hscy9DMjMwMi8xLzIwMDAvKiIsIkNvbmRpdGlvbiI6eyJEYXRlTGVzc1RoYW4iOnsiQVdTOkVwb2NoVGltZSI6MTUyNzM4MzU1NH19fV0sInRpZCI6IjczNTA3NDI3MTU0In0_&Signature=FVR7Imm1iFsQ~WQtdeJWPEZKDLrV38JfonjOHFV2jrpvlhME2fJSTqdgONxVANSDtKeIhAI4v1~88y8HPsnVZ88IUTgJWn0UNctTu7sPPz~Sl7k0cLmN8kChpyjyXQ-RCb4FOlBMUnQsAH51kAgHkZowBGNATERhW5Mdm35fXgxbsBpqq2Lteye9NGGMGPBpExI4NFiIdpMDgxjxH1JOPjPiSnxStda-G5RGcOhmMba64n1dM3OTQMPoSf7Q2caWnTnOYXwm5NmE6WNEw2vphySBBOLl2~qIYNuZvOUvpADVOI~g3aYUdH3HzasmKpU4GDVHh2Vwe~Oi6ShW~W9cRA__&Key-Pair-Id=APKAJ6KCI2B6BKBQMD4A
p94
sVC2301
p95
Vhttps://live-su.cdn.pooq.co.kr/hls/C2301/1/2000/live.m3u8?Policy=eyJTdGF0ZW1lbnQiOlt7IlJlc291cmNlIjoiaHR0cCo6Ly8qLmNkbi5wb29xLmNvLmtyL2hscy9DMjMwMS8xLzIwMDAvKiIsIkNvbmRpdGlvbiI6eyJEYXRlTGVzc1RoYW4iOnsiQVdTOkVwb2NoVGltZSI6MTUyNzQyMDc3OH19fV0sInRpZCI6IjczNTA3NDI0Mzc4In0_&Signature=F0dwzhwan6HoOWrUoXv7pwsFgHRwlvvcWDvA8CWaMXhdyFCo9YD9cZ4aGgTdaosBe2xvEpodEL2Q951ySw8aRRns5MCteyRD6WO6eq5TH4sbm4wz2xl7Ti835C7SW~TbDyjC3TkS0Lch9m89hIZWCEtPEDb51nj2rSSVnMot2qn7mkpe125Xmqa9GICXzdjGXOFYpUruSi5imHZvwkSBCbuVJt~l95qnEDKVc~M9AsdHD0MnQPGZKUj~HOmYLJH~adLlp~F9myronwquo-VlTIbYXPkv7QXF5~taY4cHRmRsUQU9SLd9cG2U1y5kdLRxfjzAEUo5U~Xh15AcOFQooQ__&Key-Pair-Id=APKAJ6KCI2B6BKBQMD4A
p96
sS'C4701'
p97
Vhttps://live-su.cdn.pooq.co.kr/hls/C4701/1/2000/live.m3u8?Policy=eyJTdGF0ZW1lbnQiOlt7IlJlc291cmNlIjoiaHR0cCo6Ly8qLmNkbi5wb29xLmNvLmtyL2hscy9DNDcwMS8xLzIwMDAvKiIsIkNvbmRpdGlvbiI6eyJEYXRlTGVzc1RoYW4iOnsiQVdTOkVwb2NoVGltZSI6MTUyNzM5NzQ3N319fV0sInRpZCI6IjczNTA3NDIxMDc3In0_&Signature=eF0TYrpE40p6Qe6jzj3pwxG7vM~NxcNKZqANdZJVMXP5ZIezkx7pWWXSYunbGDqfG9NfJvaU5jnc4pmOUIe5inI~swxNrCvyUHTH3ByRSmOPAggqlGiVMUrzcPJ9OOqyGK7MIpf9AMPhou8TN7FpL6PciAlTcMbnOOt58XiSPXsb5pJpoo6VKz-uJqUvyRUkBfr3BRKowYPJwxjhh5jnGRmmfTHQ0QIwptiU-E2mPSk7isbiZbe9eWueYD1WOFzHSuM6KX2ZEfT5WyeIwIuS28PlmGqMvxyyGfTtYpxeIBbVKILX7S4RqyCCD~XeVUUl1RMeJW9kiDb4udhDirpA0g__&Key-Pair-Id=APKAJ6KCI2B6BKBQMD4A
p98
sS'recent'
p99
g96
sS'S08'
p100
Vhttps://live-su.cdn.pooq.co.kr/hls/S08/1/100/radio.m3u8?Policy=eyJTdGF0ZW1lbnQiOlt7IlJlc291cmNlIjoiaHR0cCo6Ly8qLmNkbi5wb29xLmNvLmtyL2hscy9TMDgvMS8xMDAvKiIsIkNvbmRpdGlvbiI6eyJEYXRlTGVzc1RoYW4iOnsiQVdTOkVwb2NoVGltZSI6MTUyNzM5NzQ0MX19fV0sInRpZCI6IjczNTA3NDIxMDQxIn0_&Signature=mIpq6z6qdIivAVhArYpR2pDssg1vupIpBxqh45pE~CYZgYlkvJdx1ZrgJvPH-aj-J4ivXO8-ZuiRAaLxgdZbZyqFLyM8y2YHrfJUiOANjg1FymrOSrP~2jy9n0N8-akYbz71bAtgKs9UkaZdiUGsKYOgTOsmZcVyNDk09215awfpc6DyUXuUkyssZkInfmCcdHpm92krOJSmvtM~J96hLyS7ecSlAM-g0Idl-e~GCDKxEk7igJ69qGIl3BDDCD5vsHnLCf7qVjkCK9OkGSJh68nRANSa1KHa~08gzu7KhIuyHDDPeloKXs2nXCbTvJNp7maiO0xZt4-7Pn6Wq6hIEw__&Key-Pair-Id=APKAJ6KCI2B6BKBQMD4A
p101
sS'S09'
p102
Vhttps://live-su.cdn.pooq.co.kr/hls/S09/1/2000/live.m3u8?Policy=eyJTdGF0ZW1lbnQiOlt7IlJlc291cmNlIjoiaHR0cCo6Ly8qLmNkbi5wb29xLmNvLmtyL2hscy9TMDkvMS8yMDAwLyoiLCJDb25kaXRpb24iOnsiRGF0ZUxlc3NUaGFuIjp7IkFXUzpFcG9jaFRpbWUiOjE1MjczNjI0MzV9fX1dLCJ0aWQiOiI3MzUwNzQyNjAzNSJ9&Signature=Z8F3aBGloN1iYGDyXcgXtPKAFVYcxjP-sV-Zp62fWduKLiweNXQxBFSfUSTVazXbEhRAmH2qKeaycw~Dcl3zEEu2CNAkHNbJTmmFE-ckcKQKNrfjVMRg8OcJrAXre28hGMgdThT9WbyueeXB5SBUh0uaQZyHppCyhiDvEj~clwr6gX7h2KhKEvZJxYDAckmYb49ReAYAB3ofcv6gRvismIUMWnbud1dwfcJA26PPeqF9PE6n5-4b5H0uGOKz6q0YBQ5C9hoAqKhGYWBJ716V~wGdgNS4Owo1kGWywIYScq~92V9qxZf2KaBwosRIV9rKcuwwA8-~RZgddgYGjHILmA__&Key-Pair-Id=APKAJ6KCI2B6BKBQMD4A
p103
sS'C2101'
p104
Vhttps://live-su.cdn.pooq.co.kr/hls/C2101/1/2000/live.m3u8?Policy=eyJTdGF0ZW1lbnQiOlt7IlJlc291cmNlIjoiaHR0cCo6Ly8qLmNkbi5wb29xLmNvLmtyL2hscy9DMjEwMS8xLzIwMDAvKiIsIkNvbmRpdGlvbiI6eyJEYXRlTGVzc1RoYW4iOnsiQVdTOkVwb2NoVGltZSI6MTUyNzM1MjMwNH19fV0sInRpZCI6IjczNTA3NDI1OTA0In0_&Signature=lexX-pfb9~hh6cQN9O1REVUWmO-dm5a-Dj0M9fnjoZaP9CKYE9nqA9sGxO~XermlCpBsxbiSGWbqfcB2OGUySovfCOYz9XyD64r4YfgtCJND593M5fZJlvg7yl9w9gMoLHWmU5eqCzWjGHYsdUKGDhKGS28bz~NL4F2fh6AuIvInTREFwWrEBJy1HnQokNInfOLPMNSp47~pG4sDenF23a1xNGg1CzsQvS7dwxGW4TNXamBpLwg3remQ-pmdknLEw7Q2cCY4CVqLmohfcn-ZQ-w02PIWBYTDr5PTZ8dR-7LMRw0rqCF83r8eM4XoBfS9cDRnl9x3sFUPoojHxSV0IA__&Key-Pair-Id=APKAJ6KCI2B6BKBQMD4A
p105
sVC2702
p106
Vhttps://live-su.cdn.pooq.co.kr/hls/C2702/1/100/radio.m3u8?Policy=eyJTdGF0ZW1lbnQiOlt7IlJlc291cmNlIjoiaHR0cCo6Ly8qLmNkbi5wb29xLmNvLmtyL2hscy9DMjcwMi8xLzEwMC8qIiwiQ29uZGl0aW9uIjp7IkRhdGVMZXNzVGhhbiI6eyJBV1M6RXBvY2hUaW1lIjoxNTI3NDEzODkzfX19XSwidGlkIjoiNzM1MDc0Mjc0OTMifQ__&Signature=StNki~6z~xEX1wyl0y52IIWrFGdBh49pGn6WDaaSOIJIhp2V8aDkIHbBoyk0WLNZmgZGiUvYK6a60BZ3fWkqi7RJiPLoXdCIjkx5-kfpdyW6SCGDwBtmApeZI~XXpaKIedU7qxGSGkezXpyZ4-JSfAcZkgY8-HbhMO4-6lL3kN~GmOOuu9-rhm~mI~qaRAFVNkVwJPICwfuTWWGF8bixTunWaOzWt4krXqfLdq-3N1Gh6w4GOllO50TyQfZAnnBBAN5BBJpONOm58~yijPC-n1KfqEWHkpA-MprQxGJjnizN~aNaUGbwzDPuGrEPqrpOB-g8xse0RaLPTgtxF7vWLQ__&Key-Pair-Id=APKAJ6KCI2B6BKBQMD4A
p107
sS'C5101'
p108
Vhttps://live-su.cdn.pooq.co.kr/hls/C5101/1/2000/live.m3u8?Policy=eyJTdGF0ZW1lbnQiOlt7IlJlc291cmNlIjoiaHR0cCo6Ly8qLmNkbi5wb29xLmNvLmtyL2hscy9DNTEwMS8xLzIwMDAvKiIsIkNvbmRpdGlvbiI6eyJEYXRlTGVzc1RoYW4iOnsiQVdTOkVwb2NoVGltZSI6MTUyNzM1MDY2Mn19fV0sInRpZCI6IjczNTA3NDI0MjYyIn0_&Signature=IH5Mmr9V5NzxlQeBto1khci0l8TTY5wJIWG-Wvk8TBU3cIXA-ABEiaTCHFM-xGdr8UleFKQGG0kuk8sGFd0EhSxKeLmpgdYEGgOpOiLqhFx9D~UQpioxgb4dUJ6uRB1FTy97dI~fTYQAnLNwlRMJLW-PwOtxe5T2uqJY~0RvzecgcLC7mvaUG0kpx4V9QYvDSdvRDTL4VAbZrg9K5y-YAmEDwvXd81edAHLyZdXSVYxGLyW8FCt-OAb30oaYSzIRD9UjIe0ivthHBNeZUPjZOVATT4aqonMsh7l3G~6mtWmdqPEUnvqcq42bYqk59g~eTTaS3j58ZI6WQ~2BdL~P3g__&Key-Pair-Id=APKAJ6KCI2B6BKBQMD4A
p109
sS'S01'
p110
Vhttps://live-su.cdn.pooq.co.kr/hls/S01/1/5000/live.m3u8?Policy=eyJTdGF0ZW1lbnQiOlt7IlJlc291cmNlIjoiaHR0cCo6Ly8qLmNkbi5wb29xLmNvLmtyL2hscy9TMDEvMS81MDAwLyoiLCJDb25kaXRpb24iOnsiRGF0ZUxlc3NUaGFuIjp7IkFXUzpFcG9jaFRpbWUiOjE1MjczNjE0OTZ9fX1dLCJ0aWQiOiI3MzUwNzQyNTA5NiJ9&Signature=DD6RBeftYxjR5XNEhnz1dbbWB9JibicQn5hKtOsuH1OawfDJHnXk-Uxl7RoobRArQzQhvwQICDZAycgbDY4TqrvfFmjxIRhG4vRs~nOinn~tW78wy-WcmVpcL-otf1-KuXOGY3OhvyAJpzAIyO9CV5HqvzC63CpiXNs5RULxJln2ZQ1Mo9g8sIiSDo5v2V6DOgE4qkmwHCbAUjTo1nyCkurUc9tsPgoa1Vl7E5o3dBzCEUFpG7EnjS6xDbJrjRXzJUfCQwTVk-lIaIGX8L2Chf9uv-M5vBKJJUiu~o5QZnbI7NWgFBiuH8SQZ3n~3frzO~esvoGPMmmdHsnIJk4RSQ__&Key-Pair-Id=APKAJ6KCI2B6BKBQMD4A
p111
sVA01
p112
Vhttps://live-su.cdn.pooq.co.kr/hls/A01/1/2000/live.m3u8?Policy=eyJTdGF0ZW1lbnQiOlt7IlJlc291cmNlIjoiaHR0cCo6Ly8qLmNkbi5wb29xLmNvLmtyL2hscy9BMDEvMS8yMDAwLyoiLCJDb25kaXRpb24iOnsiRGF0ZUxlc3NUaGFuIjp7IkFXUzpFcG9jaFRpbWUiOjE1MjczOTgzNzd9fX1dLCJ0aWQiOiI3MzUwNzQyMTk3NyJ9&Signature=LwHbD-pprW-YaMDZxrdLOzb7R4V2s7fj9UQ073p-wZWWub~e5RWvRTHwZA5~Gbi2Dv8fm1wd0Y8VwhX0XxFefcETpZWTWDgTp~uT3sh48noboDhAlJhfkLRpq7V~~DtbUYNDubfDPmbB6VSqsVAWv4d3UDmqFtJ~UtAsIl2AUp2rY3NFXk5ALvp2yGY034PMmmtcJM7MoEPHLN-g7fK40InUazPpGvxOWK--SnHTiK7X7nHxsY4uSSQqDEWpX725ezjTaF3Mlsud32z1EGxUlLVX4FBS8TISnxTFDzlN4Zw59Figi-JPoq-MLS2~kcL7sMZx7gMOhplr7L6nNF1m1Q__&Key-Pair-Id=APKAJ6KCI2B6BKBQMD4A
p113
sS'S03'
p114
Vhttps://live-su.cdn.pooq.co.kr/hls/S03/1/2000/live.m3u8?Policy=eyJTdGF0ZW1lbnQiOlt7IlJlc291cmNlIjoiaHR0cCo6Ly8qLmNkbi5wb29xLmNvLmtyL2hscy9TMDMvMS8yMDAwLyoiLCJDb25kaXRpb24iOnsiRGF0ZUxlc3NUaGFuIjp7IkFXUzpFcG9jaFRpbWUiOjE1MjczOTgwNDZ9fX1dLCJ0aWQiOiI3MzUwNzQyMTY0NiJ9&Signature=HsaRHj02jbtS2mTS-w2QSK887bCPMWHmmG5HHmXNNvwAFuIWoDazKL7xIZxRrMcuR11R2GHZdZTdwsu1byhhYxxCfAjley4cfd-y0rQ3jVML9G552anCwt~YLGcS6XrWnLV1Adtc9gXvz2rQ-fk6dXF9ep0CfmD4e~7zS~ApIdi7d1Wst58hDkGfpVDPm6nl60mb0F5zn5q63iOOJj5Lc5S9DtEFrHSTOEMj-A1eBZsrK5fSJ2Sl14dFgIeHIG2JV85StrU3JMlEBFAd6qmOuy0DgVbJkzeZ1NkBRA7WluuKfwIKZ6sBkxVie2dvrxJmEe5dCzq1ZmTi4MyOMqABQg__&Key-Pair-Id=APKAJ6KCI2B6BKBQMD4A
p115
sS'S04'
p116
Vhttps://live-su.cdn.pooq.co.kr/hls/S04/1/2000/live.m3u8?Policy=eyJTdGF0ZW1lbnQiOlt7IlJlc291cmNlIjoiaHR0cCo6Ly8qLmNkbi5wb29xLmNvLmtyL2hscy9TMDQvMS8yMDAwLyoiLCJDb25kaXRpb24iOnsiRGF0ZUxlc3NUaGFuIjp7IkFXUzpFcG9jaFRpbWUiOjE1MjczOTc3MjJ9fX1dLCJ0aWQiOiI3MzUwNzQyMTMyMiJ9&Signature=Km0emmVzC4XMUtkMctCt1pq1lQcYm-rMR7r6EPcU0ZDfqCca7ckrAtATSubvg95h9K17HM5J~scCUnftEx4VEwDYmqjayyHjuk2OJAyymL3tXq~Cc6EsvUUPCUiW75wcDZ7yJZYAb04sbuvnfPwSx8Cg5Isay9HT46xvt4cSYUNJxdlKyi7sWxnhb6VRgGQwPjna9I5B-lQivsZe2EVcQNFq0dpOrcXrkFZgaAx7gOG4uFGaPaAKngrOr~Z9pP1FHsb7Td-gmgLPcKjGIJTFk1G7aTsP0y-e1qEZ3Dvb647KHtns~p9rDDkdv2J3I13xsu39NEBLBy0GDArkOgQO-g__&Key-Pair-Id=APKAJ6KCI2B6BKBQMD4A
p117
sS'S05'
p118
Vhttps://live-su.cdn.pooq.co.kr/hls/S05/1/2000/live.m3u8?Policy=eyJTdGF0ZW1lbnQiOlt7IlJlc291cmNlIjoiaHR0cCo6Ly8qLmNkbi5wb29xLmNvLmtyL2hscy9TMDUvMS8yMDAwLyoiLCJDb25kaXRpb24iOnsiRGF0ZUxlc3NUaGFuIjp7IkFXUzpFcG9jaFRpbWUiOjE1MjczOTc2ODd9fX1dLCJ0aWQiOiI3MzUwNzQyMTI4NyJ9&Signature=LzjpiyOrQhCZt43QM56Zn1Lg9RYrnjMMt~HgmSaENGGT-WZG3DDT7eIldZfa~JNtTa5FdprtscygSMIVjPGPqTIZmw4e-MHq8xS-8pabW9sF-s0~HBot6s0ErJjtVFizCy3-7S9L-Oj34WIKNTizJENTF9GFLh1h4jB-H4Wq-nxTbB3uqNRSRuT-~~oUual~oopoRKSQEqW7VuNUKHVSNzv80KD8QVUcs5RTFaUC6282JMnueLgFvmxUQTyRmX4y~24kLm9ZZhKrPpJ60F--RkFguE4j2uVS2-aIJbnTih3EFvQW9y1OLvXULX5ZFM1Jze08fPYquWJUB9OfEVUcyA__&Key-Pair-Id=APKAJ6KCI2B6BKBQMD4A
p119
sS'S06'
p120
Vhttps://live-su.cdn.pooq.co.kr/hls/S06/1/5000/live.m3u8?Policy=eyJTdGF0ZW1lbnQiOlt7IlJlc291cmNlIjoiaHR0cCo6Ly8qLmNkbi5wb29xLmNvLmtyL2hscy9TMDYvMS81MDAwLyoiLCJDb25kaXRpb24iOnsiRGF0ZUxlc3NUaGFuIjp7IkFXUzpFcG9jaFRpbWUiOjE1Mjc0MTkzNDd9fX1dLCJ0aWQiOiI3MzUwNzQyMjk0NyJ9&Signature=hjDYqMs0iW6Y5x0x4vH68FdkV0TVdDwhmkBGkEt9dNv2-LfS1kKoEdaWXNj0PEwBTAQZh1Vac45zqD2WHby5w1zpVtTypOjk7TswqMyKTcEJ--oKkuGeyVceJj2wKDEM57gzR0LCDvPiKHVB~DWuMQq7maY8unRz3MG01BAmdrN4RLLPnlBW4zES92hepNqbu8hE1x6hx5WcLD5kFMS9iIwXa8vpbEzzIQFDYrSMsYWYXbhz8pYHepKzuagMWc~FJPf~0s3DY2ISXRcAlYVdfjxVxxcshZTn~pmrYYZl068LVaPnGwuJtQ4M~QyS1AHhw2Or-4651qpEiGRbPl~qHA__&Key-Pair-Id=APKAJ6KCI2B6BKBQMD4A
p121
sS'S07'
p122
Vhttps://live-su.cdn.pooq.co.kr/hls/S07/1/100/radio.m3u8?Policy=eyJTdGF0ZW1lbnQiOlt7IlJlc291cmNlIjoiaHR0cCo6Ly8qLmNkbi5wb29xLmNvLmtyL2hscy9TMDcvMS8xMDAvKiIsIkNvbmRpdGlvbiI6eyJEYXRlTGVzc1RoYW4iOnsiQVdTOkVwb2NoVGltZSI6MTUyNzM5NzU0OX19fV0sInRpZCI6IjczNTA3NDIxMTQ5In0_&Signature=nNUVKCHXImv-cqUBWchhTVKGpDOfD7xKAnFiduQTSkc479yFKOdtfHa7qWh-IJrlHYoSdiLOEHIdaX-QhBZRncikCItDtNNxXCyZ4F0vNvOT4G~aHwtw-jCB8N2KWhVI7ZwV7ZteTs4yKp7ZL5e90tvbQo8ezrRx9QoGB8p8X0ZvGbhHw7oMsqu7u3bIg5Iex1XCIR5bqkywIMDFMBYyZd-foX78MD9iyyt-XahTMO97bjWT4ua11iKS443N7Fmw-BLHLSyMYcQsM-xtQsE8VW1qyfR7msyT39-kuVCzaDbu3fMuHuKAo83GR4fA0-7BNz5gSXsvy7zBcXN3kdaZYQ__&Key-Pair-Id=APKAJ6KCI2B6BKBQMD4A
p123
sS'M10'
p124
Vhttps://live-su.cdn.pooq.co.kr/hls/M10/1/2000/live.m3u8?Policy=eyJTdGF0ZW1lbnQiOlt7IlJlc291cmNlIjoiaHR0cCo6Ly8qLmNkbi5wb29xLmNvLmtyL2hscy9NMTAvMS8yMDAwLyoiLCJDb25kaXRpb24iOnsiRGF0ZUxlc3NUaGFuIjp7IkFXUzpFcG9jaFRpbWUiOjE1MjczOTgyMzN9fX1dLCJ0aWQiOiI3MzUwNzQyMTgzMyJ9&Signature=lYjOasMadwnAcn647kcjeLIQWCm15hBysErQ-UOXxiw8MUDW1zDraUmedI7atxje~gBOzTzbvgZ-4qvDIm0eU-AsSibWgguV0BRenXHD0tS6BD0caRo1cw1DfM0cWvCuVUdS2crEpLqKCt5cCawgMCvDrxpTQ2CDbgRZ1Q9BZY2RVxPbo9-A3tXz4Cn9gWYfgSPRf0nTvxZxgYTShVc457HXXzuMb~SY3gIvIozmFZM4jG91Wk1~K5BmpQLfiYDv2c6D4DB~GX6rA7BR8u1ODn4yhI7oCCm4x57aIx0Jl-RZTljHRbQVZGwNweTODChYYbG152-zu1gqVSN079sCpA__&Key-Pair-Id=APKAJ6KCI2B6BKBQMD4A
p125
sS'D02'
p126
Vhttps://live-su.cdn.pooq.co.kr/hls/D02/1/2000/live.m3u8?Policy=eyJTdGF0ZW1lbnQiOlt7IlJlc291cmNlIjoiaHR0cCo6Ly8qLmNkbi5wb29xLmNvLmtyL2hscy9EMDIvMS8yMDAwLyoiLCJDb25kaXRpb24iOnsiRGF0ZUxlc3NUaGFuIjp7IkFXUzpFcG9jaFRpbWUiOjE1Mjc0MTM3NTN9fX1dLCJ0aWQiOiI3MzUwNzQyNzM1MyJ9&Signature=iij9VDVysdMxvIERRNp0Or-gKF5y-EZM9Sw0SHhiVEpxWaPZVGY9Sz7vqR9mNquL0XGdrb~BufpdE-SHbJAr4PziIHQ-ZMC-gqzkoVSpjVVuGr2MqNBn-R-qVaIT3I0QGwY1szdj3tUCwokTFdASd9t4mpUnQRPy8mgDlICBN9tZZ3ONZZXuEUmaigP3EJ3Q0ArKtS0BcoMn191N1iVCiZ-0TNB0pS36dYFAgiQqfcvQGGZ1-9socEkJvPyev3PnS9DYcqLDwvLD1Bwfqyi32gCYbl9qSGTCo~i2paKX9RF3iSZSFIwHId2L1TDPYv0B-30useuB-rICaE0ZRHhFFw__&Key-Pair-Id=APKAJ6KCI2B6BKBQMD4A
p127
sS'M12'
p128
Vhttps://live-su.cdn.pooq.co.kr/hls/M12/1/2000/live.m3u8?Policy=eyJTdGF0ZW1lbnQiOlt7IlJlc291cmNlIjoiaHR0cCo6Ly8qLmNkbi5wb29xLmNvLmtyL2hscy9NMTIvMS8yMDAwLyoiLCJDb25kaXRpb24iOnsiRGF0ZUxlc3NUaGFuIjp7IkFXUzpFcG9jaFRpbWUiOjE1MjczNjI3ODJ9fX1dLCJ0aWQiOiI3MzUwNzQyNjM4MiJ9&Signature=kBXbTw3zNKM8G9vDFfY~qm-eyV2zYxAB4xzZ88QTswzj~jpEi99NDLumK-ITppkHbgYfANE~JXVohQ1uRcIg2EZM6egFVf9W-2CY0v8rW6YrZUNAdQ1QbQYKZVX1acr-EHoX4sUZNCxRByLDAPQFYwS4R9N5yY67qhoCRqOGXdR~61-GfciqPdR6aRjgzMaBgTeCPGSehInDQmA7L-MhnTXFaNLveLnkQw0w45wspJKrbEQyzAcK2BviOoQVhJb8O3eHGIE7fmYECRtUqkR0TG26KLwbNGsnMhw1aObKRK6v5byw5V1G~qGHK0UnCsLnRwo4U5iiAMTo~lRxrsZMLQ__&Key-Pair-Id=APKAJ6KCI2B6BKBQMD4A
p129
sS'C2401'
p130
Vhttps://live-su.cdn.pooq.co.kr/hls/C2401/1/2000/live.m3u8?Policy=eyJTdGF0ZW1lbnQiOlt7IlJlc291cmNlIjoiaHR0cCo6Ly8qLmNkbi5wb29xLmNvLmtyL2hscy9DMjQwMS8xLzIwMDAvKiIsIkNvbmRpdGlvbiI6eyJEYXRlTGVzc1RoYW4iOnsiQVdTOkVwb2NoVGltZSI6MTUyNzM5ODI2OX19fV0sInRpZCI6IjczNTA3NDIxODY5In0_&Signature=XuEjmBIZc02-DXGtHCrVsR8SthBZdsC6qp2CSAUI5jBMSO2XkVfOjARRxWmUvUvi6puCwpwcZwUMWJ1DzKNE3Rwed6K9mpa4nMbUJuvt9GwQVUBIuuGEDnw~lWvXVybKdGk7kDFaMyTsS0eR4GVJNhPs3noCwPluIzo3Sa~6Nuk-IgjFBtjQAniU6qbxng-F9EpU~eQfnwZRBqyEMaeZ1YneLyClGZ1XfXU57D~7fA-p0KNNJKkGi1ItF53QPhZQDvHpP5B4PtmYsNGc1VVxkIrioKgD3dLRtL0r86JzBZyGs~eAA7qsSp8QTGSRzS2L87HiE-54rKO~~WLB4lp13Q__&Key-Pair-Id=APKAJ6KCI2B6BKBQMD4A
p131
sS'K08'
p132
Vhttps://live-su.cdn.pooq.co.kr/hls/K08/1/100/radio.m3u8?Policy=eyJTdGF0ZW1lbnQiOlt7IlJlc291cmNlIjoiaHR0cCo6Ly8qLmNkbi5wb29xLmNvLmtyL2hscy9LMDgvMS8xMDAvKiIsIkNvbmRpdGlvbiI6eyJEYXRlTGVzc1RoYW4iOnsiQVdTOkVwb2NoVGltZSI6MTUyNzM5ODA4M319fV0sInRpZCI6IjczNTA3NDIxNjgzIn0_&Signature=DALQBuOiXNIGfjOvTB7fPhea8HGJqh1bqotTGtSNqIL2FM2A8dLquMVfrBrNjS0fZcMrlaIa7a6gCEAQKscpjELvugNv5ljPuLPBhQZLcimcRuW64W3fckth1fkKLhzFRj1f7ggDyagKeW7Ue29DJqUcdTgniu96y8QR3CYvP0lEGIx2tCGnAGbw0ki9y8bVcFhw6qLTkAnyAB4h9wrW~Yyg~VF3XDwXBi4CA8YKwEAcMlaeK73PvxipPi4hWgeCp2Nsl~IMAJr0fmW2QiwCD8nKSvG~CfUiR5rWNeTSRxCAM-LbE2oKsfAq7RX2PXNt9BxUyEHejWcs5x7weEVp3A__&Key-Pair-Id=APKAJ6KCI2B6BKBQMD4A
p133
sVC4702
p134
Vhttps://live-su.cdn.pooq.co.kr/hls/C4702/1/2000/live.m3u8?Policy=eyJTdGF0ZW1lbnQiOlt7IlJlc291cmNlIjoiaHR0cCo6Ly8qLmNkbi5wb29xLmNvLmtyL2hscy9DNDcwMi8xLzIwMDAvKiIsIkNvbmRpdGlvbiI6eyJEYXRlTGVzc1RoYW4iOnsiQVdTOkVwb2NoVGltZSI6MTUyNzM2MTI2Nn19fV0sInRpZCI6IjczNTA3NDI0ODY2In0_&Signature=fz6iwKDfYmhXMGX~2-tMu8xy3dFRk7tVmPqTlMLv4qIRtBBvAId6ydEcoF5jMHwUqlWQc0db4w23rGx~SWN3L~6U924TUMfSb0nOMEIi8aHwJL5ku-W82FZgRaskHN499sCxq3rZ-Gck2etD88MflN2a2tOJcELCVCuTbUh8Y~99-5nvrAttF27i8SUEYeZsohvfmajf3StgMhqSBv~UfGx2FEKT2mzNOoBhWeADrp3SuGIugyZRhZGqrCkK05nTkBoO65d~Ypvnn-9acZ1bqdawXM507EF~do3PJOu9EMnjl6qrrMC7mCPM-KkATuWLlh6ERIBoU465kn12KY3WyQ__&Key-Pair-Id=APKAJ6KCI2B6BKBQMD4A
p135
sS'C2303'
p136
Vhttps://live-su.cdn.pooq.co.kr/hls/C2303/1/2000/live.m3u8?Policy=eyJTdGF0ZW1lbnQiOlt7IlJlc291cmNlIjoiaHR0cCo6Ly8qLmNkbi5wb29xLmNvLmtyL2hscy9DMjMwMy8xLzIwMDAvKiIsIkNvbmRpdGlvbiI6eyJEYXRlTGVzc1RoYW4iOnsiQVdTOkVwb2NoVGltZSI6MTUyNzM5NzgzN319fV0sInRpZCI6IjczNTA3NDIxNDM3In0_&Signature=FcrYMmea5s6HOH~q0laPXtatgCNK8qCSWln-H3anKO0XM1Hjwjzg6y~HRTBduygReiYDebIgyuDsmAxSjIHd6rp~mJeGwBXaMsJrotLWJqTtb-BOZJAKyNGWRCACDOFmT~KbyupFOf4278qNFJlrGdUc149HcFhMfFMDOOYQCbAJi0A5IGEnX5Ul71EnMHzvnyR9vT7gTkyNpIh4bM8hQjcReSxh33TMQYsOB28jrVHjl36rfPjqm~YICcPwNanxo67~1ZkrpanUgefPZhVL4UgI~yqIHbpbHCZwIOLLUidz7SaALM4A-JxaiZScBIWrFIK1MDFcB7I6OajZviS9mA__&Key-Pair-Id=APKAJ6KCI2B6BKBQMD4A
p137
sS'S02'
p138
Vhttps://live-su.cdn.pooq.co.kr/hls/S02/1/5000/live.m3u8?Policy=eyJTdGF0ZW1lbnQiOlt7IlJlc291cmNlIjoiaHR0cCo6Ly8qLmNkbi5wb29xLmNvLmtyL2hscy9TMDIvMS81MDAwLyoiLCJDb25kaXRpb24iOnsiRGF0ZUxlc3NUaGFuIjp7IkFXUzpFcG9jaFRpbWUiOjE1MjczNTQxNjR9fX1dLCJ0aWQiOiI3MzUwNzQyNzc2NCJ9&Signature=ePGuXAWHLpFvMEiBW77o5D1xz1X3yGkkV-JzoV07wIlRYdSvRkgIz3ZhrPvJh6OjyjQiuM-NmIr-GKnWAPdYqFMJu74VKpJCzUl7KKPwdEDjpBc-Kv1cdansmW4sPiIjjzWZe393Bod5H9CMOWCXHSMlCMcVW685qrEQM7X-R1JeP7aIv9FT7aI4t~i2THl2E4aC8TSuIwsSTxT494xgGOcArQh6Gi11dMLLItnDVSVRffrKYQmFgMyEpNm~9UJgzaEdd6AKL0k7j5ftG-B3dEhetFtQ59O3guXPkuT28j57QiSayx7mYPgFjVIicQu~LrIZQTlsVDlpf5N57oHujg__&Key-Pair-Id=APKAJ6KCI2B6BKBQMD4A
p139
sVC2701
p140
Vhttps://live-su.cdn.pooq.co.kr/hls/C2701/1/100/radio.m3u8?Policy=eyJTdGF0ZW1lbnQiOlt7IlJlc291cmNlIjoiaHR0cCo6Ly8qLmNkbi5wb29xLmNvLmtyL2hscy9DMjcwMS8xLzEwMC8qIiwiQ29uZGl0aW9uIjp7IkRhdGVMZXNzVGhhbiI6eyJBV1M6RXBvY2hUaW1lIjoxNTI3MzYxMzQyfX19XSwidGlkIjoiNzM1MDc0MjQ5NDIifQ__&Signature=HQPs0k-gZxGOtZPTz02132c8wD6dQFAIcpFVKaWF6EnW1Sz4PNpqVK9s3Cx3hGVjR2YfL5k1gQV6sQNSO~3kaD8l1vXuBlAz4xIUscKFW5lniJg9GfeC9EERzSeqtlU2gObqEvX28C8MlNX43nL9wURpc5JJcWlzO5OcZp44QKRn~e3~Mj3VUKyyu5VCxetPDWB4LKnSIWB4qAZcBza~Hvz47wbB6-sE7k28odi35CT96WFuybqMAWZrpDskfTDXX5kMOHuEdd7ptC9RBhS3Rn3NbuWWsyC~oeC6pbp5yibzH9yoW95hd1D67zaoj~zVsmHXz4GwTMewkPkbayOpDw__&Key-Pair-Id=APKAJ6KCI2B6BKBQMD4A
p141
sS'E07'
p142
Vhttps://live-su.cdn.pooq.co.kr/hls/E07/1/2000/live.m3u8?Policy=eyJTdGF0ZW1lbnQiOlt7IlJlc291cmNlIjoiaHR0cCo6Ly8qLmNkbi5wb29xLmNvLmtyL2hscy9FMDcvMS8yMDAwLyoiLCJDb25kaXRpb24iOnsiRGF0ZUxlc3NUaGFuIjp7IkFXUzpFcG9jaFRpbWUiOjE1MjczNjM5NDN9fX1dLCJ0aWQiOiI3MzUwNzQyNzU0MyJ9&Signature=FL0j-2SNUIJEVjWoOXrdyDrqDQvxwNRND20wY2rXWenrhmvLsCz0bUM9Bcdp8Eo~7FtG91Lfy472Wy5yEeOVVknDwYpXtLOC4wX5lU1PywPDqTUMUJVRFZqar9ZmDGs-KeTPgkKVqGQS3eSsyZh5U3tVsLAicNk5ijEAHph48VJFej6mm1F3LizmI5mblQP-7d5GNNW-iix3SLCyp0c0z~oRlRRBddiA7fpchAly9aIAUWJr5Acz8aWzrFiXXZx7CC6Jq57xlxUcLD0w9EmLr8wk4nbzIEQdDqSgtNe5nNgftqizaTawdlbRRHRl58eUoCkK5jhKkP~28ckLbg7nYw__&Key-Pair-Id=APKAJ6KCI2B6BKBQMD4A
p143
s.